
Clicker_Software.elf:     file format elf32-littlearm

Sections:
Idx Name          Size      VMA       LMA       File off  Algn
  0 .intvec       000000c0  10040000  10040000  00001000  2**0
                  CONTENTS, ALLOC, LOAD, READONLY, DATA
  1 .text         00004bc4  100400c0  100400c0  000010c0  2**2
                  CONTENTS, ALLOC, LOAD, READONLY, CODE
  2 .init         00000004  10044c84  10044c84  00005c84  2**2
                  CONTENTS, ALLOC, LOAD, READONLY, CODE
  3 .fini         00000004  10044c88  10044c88  00005c88  2**2
                  CONTENTS, ALLOC, LOAD, READONLY, CODE
  4 .rodata       00000008  10044c8c  10044c8c  00005c8c  2**0
                  CONTENTS, ALLOC, LOAD, READONLY, DATA
  5 .data         00000068  20000970  10044c94  00006970  2**2
                  CONTENTS, ALLOC, LOAD, DATA
  6 .ram_preamble 0000002c  20000004  20000004  00007004  2**2
                  ALLOC
  7 .bss.blueRAM  000000bc  200000c0  200000c0  00007004  2**0
                  ALLOC
  8 .bss          000007f4  2000017c  2000017c  00007004  2**2
                  ALLOC
  9 .noinit       00000000  200009d8  10044cfc  00000000  2**0
                  ALLOC
 10 .ota_region_end 00000000  10044cfc  10044cfc  000069d8  2**0
                  CONTENTS
 11 .heap         00000000  200009d8  200009d8  000069d8  2**0
                  CONTENTS
 12 .stack        00000c00  2000f400  2000f400  00007400  2**0
                  ALLOC
 13 .rom_info     00000000  10000000  10000000  000069d8  2**0
                  CONTENTS
 14 .ARM.attributes 00000028  00000000  00000000  000069d8  2**0
                  CONTENTS, READONLY
 15 .comment      00000043  00000000  00000000  00006a00  2**0
                  CONTENTS, READONLY
 16 .debug_frame  000002b0  00000000  00000000  00006a44  2**2
                  CONTENTS, READONLY, DEBUGGING, OCTETS

Disassembly of section .text:

100400c0 <blue_unit_conversion>:
100400c0:	b510      	push	{r4, lr}
100400c2:	4290      	cmp	r0, r2
100400c4:	d916      	bls.n	100400f4 <mul32>
100400c6:	b28a      	uxth	r2, r1
100400c8:	0c03      	lsrs	r3, r0, #16
100400ca:	0c09      	lsrs	r1, r1, #16
100400cc:	460c      	mov	r4, r1
100400ce:	4359      	muls	r1, r3
100400d0:	b280      	uxth	r0, r0
100400d2:	4353      	muls	r3, r2
100400d4:	4344      	muls	r4, r0
100400d6:	4350      	muls	r0, r2
100400d8:	191b      	adds	r3, r3, r4
100400da:	041a      	lsls	r2, r3, #16
100400dc:	0c1b      	lsrs	r3, r3, #16
100400de:	1810      	adds	r0, r2, r0
100400e0:	4159      	adcs	r1, r3
100400e2:	2280      	movs	r2, #128	@ 0x80
100400e4:	0352      	lsls	r2, r2, #13
100400e6:	2300      	movs	r3, #0
100400e8:	1812      	adds	r2, r2, r0
100400ea:	414b      	adcs	r3, r1
100400ec:	0d52      	lsrs	r2, r2, #21
100400ee:	02d8      	lsls	r0, r3, #11
100400f0:	4310      	orrs	r0, r2
100400f2:	bd10      	pop	{r4, pc}

100400f4 <mul32>:
100400f4:	4348      	muls	r0, r1
100400f6:	2280      	movs	r2, #128	@ 0x80
100400f8:	0352      	lsls	r2, r2, #13
100400fa:	1812      	adds	r2, r2, r0
100400fc:	0d52      	lsrs	r2, r2, #21
100400fe:	4610      	mov	r0, r2
10040100:	bd10      	pop	{r4, pc}
10040102:	46c0      	nop			@ (mov r8, r8)

10040104 <__udivsi3>:
10040104:	2200      	movs	r2, #0
10040106:	0843      	lsrs	r3, r0, #1
10040108:	428b      	cmp	r3, r1
1004010a:	d374      	bcc.n	100401f6 <__udivsi3+0xf2>
1004010c:	0903      	lsrs	r3, r0, #4
1004010e:	428b      	cmp	r3, r1
10040110:	d35f      	bcc.n	100401d2 <__udivsi3+0xce>
10040112:	0a03      	lsrs	r3, r0, #8
10040114:	428b      	cmp	r3, r1
10040116:	d344      	bcc.n	100401a2 <__udivsi3+0x9e>
10040118:	0b03      	lsrs	r3, r0, #12
1004011a:	428b      	cmp	r3, r1
1004011c:	d328      	bcc.n	10040170 <__udivsi3+0x6c>
1004011e:	0c03      	lsrs	r3, r0, #16
10040120:	428b      	cmp	r3, r1
10040122:	d30d      	bcc.n	10040140 <__udivsi3+0x3c>
10040124:	22ff      	movs	r2, #255	@ 0xff
10040126:	0209      	lsls	r1, r1, #8
10040128:	ba12      	rev	r2, r2
1004012a:	0c03      	lsrs	r3, r0, #16
1004012c:	428b      	cmp	r3, r1
1004012e:	d302      	bcc.n	10040136 <__udivsi3+0x32>
10040130:	1212      	asrs	r2, r2, #8
10040132:	0209      	lsls	r1, r1, #8
10040134:	d065      	beq.n	10040202 <__udivsi3+0xfe>
10040136:	0b03      	lsrs	r3, r0, #12
10040138:	428b      	cmp	r3, r1
1004013a:	d319      	bcc.n	10040170 <__udivsi3+0x6c>
1004013c:	e000      	b.n	10040140 <__udivsi3+0x3c>
1004013e:	0a09      	lsrs	r1, r1, #8
10040140:	0bc3      	lsrs	r3, r0, #15
10040142:	428b      	cmp	r3, r1
10040144:	d301      	bcc.n	1004014a <__udivsi3+0x46>
10040146:	03cb      	lsls	r3, r1, #15
10040148:	1ac0      	subs	r0, r0, r3
1004014a:	4152      	adcs	r2, r2
1004014c:	0b83      	lsrs	r3, r0, #14
1004014e:	428b      	cmp	r3, r1
10040150:	d301      	bcc.n	10040156 <__udivsi3+0x52>
10040152:	038b      	lsls	r3, r1, #14
10040154:	1ac0      	subs	r0, r0, r3
10040156:	4152      	adcs	r2, r2
10040158:	0b43      	lsrs	r3, r0, #13
1004015a:	428b      	cmp	r3, r1
1004015c:	d301      	bcc.n	10040162 <__udivsi3+0x5e>
1004015e:	034b      	lsls	r3, r1, #13
10040160:	1ac0      	subs	r0, r0, r3
10040162:	4152      	adcs	r2, r2
10040164:	0b03      	lsrs	r3, r0, #12
10040166:	428b      	cmp	r3, r1
10040168:	d301      	bcc.n	1004016e <__udivsi3+0x6a>
1004016a:	030b      	lsls	r3, r1, #12
1004016c:	1ac0      	subs	r0, r0, r3
1004016e:	4152      	adcs	r2, r2
10040170:	0ac3      	lsrs	r3, r0, #11
10040172:	428b      	cmp	r3, r1
10040174:	d301      	bcc.n	1004017a <__udivsi3+0x76>
10040176:	02cb      	lsls	r3, r1, #11
10040178:	1ac0      	subs	r0, r0, r3
1004017a:	4152      	adcs	r2, r2
1004017c:	0a83      	lsrs	r3, r0, #10
1004017e:	428b      	cmp	r3, r1
10040180:	d301      	bcc.n	10040186 <__udivsi3+0x82>
10040182:	028b      	lsls	r3, r1, #10
10040184:	1ac0      	subs	r0, r0, r3
10040186:	4152      	adcs	r2, r2
10040188:	0a43      	lsrs	r3, r0, #9
1004018a:	428b      	cmp	r3, r1
1004018c:	d301      	bcc.n	10040192 <__udivsi3+0x8e>
1004018e:	024b      	lsls	r3, r1, #9
10040190:	1ac0      	subs	r0, r0, r3
10040192:	4152      	adcs	r2, r2
10040194:	0a03      	lsrs	r3, r0, #8
10040196:	428b      	cmp	r3, r1
10040198:	d301      	bcc.n	1004019e <__udivsi3+0x9a>
1004019a:	020b      	lsls	r3, r1, #8
1004019c:	1ac0      	subs	r0, r0, r3
1004019e:	4152      	adcs	r2, r2
100401a0:	d2cd      	bcs.n	1004013e <__udivsi3+0x3a>
100401a2:	09c3      	lsrs	r3, r0, #7
100401a4:	428b      	cmp	r3, r1
100401a6:	d301      	bcc.n	100401ac <__udivsi3+0xa8>
100401a8:	01cb      	lsls	r3, r1, #7
100401aa:	1ac0      	subs	r0, r0, r3
100401ac:	4152      	adcs	r2, r2
100401ae:	0983      	lsrs	r3, r0, #6
100401b0:	428b      	cmp	r3, r1
100401b2:	d301      	bcc.n	100401b8 <__udivsi3+0xb4>
100401b4:	018b      	lsls	r3, r1, #6
100401b6:	1ac0      	subs	r0, r0, r3
100401b8:	4152      	adcs	r2, r2
100401ba:	0943      	lsrs	r3, r0, #5
100401bc:	428b      	cmp	r3, r1
100401be:	d301      	bcc.n	100401c4 <__udivsi3+0xc0>
100401c0:	014b      	lsls	r3, r1, #5
100401c2:	1ac0      	subs	r0, r0, r3
100401c4:	4152      	adcs	r2, r2
100401c6:	0903      	lsrs	r3, r0, #4
100401c8:	428b      	cmp	r3, r1
100401ca:	d301      	bcc.n	100401d0 <__udivsi3+0xcc>
100401cc:	010b      	lsls	r3, r1, #4
100401ce:	1ac0      	subs	r0, r0, r3
100401d0:	4152      	adcs	r2, r2
100401d2:	08c3      	lsrs	r3, r0, #3
100401d4:	428b      	cmp	r3, r1
100401d6:	d301      	bcc.n	100401dc <__udivsi3+0xd8>
100401d8:	00cb      	lsls	r3, r1, #3
100401da:	1ac0      	subs	r0, r0, r3
100401dc:	4152      	adcs	r2, r2
100401de:	0883      	lsrs	r3, r0, #2
100401e0:	428b      	cmp	r3, r1
100401e2:	d301      	bcc.n	100401e8 <__udivsi3+0xe4>
100401e4:	008b      	lsls	r3, r1, #2
100401e6:	1ac0      	subs	r0, r0, r3
100401e8:	4152      	adcs	r2, r2
100401ea:	0843      	lsrs	r3, r0, #1
100401ec:	428b      	cmp	r3, r1
100401ee:	d301      	bcc.n	100401f4 <__udivsi3+0xf0>
100401f0:	004b      	lsls	r3, r1, #1
100401f2:	1ac0      	subs	r0, r0, r3
100401f4:	4152      	adcs	r2, r2
100401f6:	1a41      	subs	r1, r0, r1
100401f8:	d200      	bcs.n	100401fc <__udivsi3+0xf8>
100401fa:	4601      	mov	r1, r0
100401fc:	4152      	adcs	r2, r2
100401fe:	4610      	mov	r0, r2
10040200:	4770      	bx	lr
10040202:	e7ff      	b.n	10040204 <__udivsi3+0x100>
10040204:	b501      	push	{r0, lr}
10040206:	2000      	movs	r0, #0
10040208:	f000 f806 	bl	10040218 <__aeabi_idiv0>
1004020c:	bd02      	pop	{r1, pc}
1004020e:	46c0      	nop			@ (mov r8, r8)

10040210 <__aeabi_uidivmod>:
10040210:	2900      	cmp	r1, #0
10040212:	d0f7      	beq.n	10040204 <__udivsi3+0x100>
10040214:	e776      	b.n	10040104 <__udivsi3>
10040216:	4770      	bx	lr

10040218 <__aeabi_idiv0>:
10040218:	4770      	bx	lr
1004021a:	46c0      	nop			@ (mov r8, r8)

1004021c <__aeabi_llsr>:
1004021c:	40d0      	lsrs	r0, r2
1004021e:	000b      	movs	r3, r1
10040220:	40d1      	lsrs	r1, r2
10040222:	469c      	mov	ip, r3
10040224:	3a20      	subs	r2, #32
10040226:	40d3      	lsrs	r3, r2
10040228:	4318      	orrs	r0, r3
1004022a:	4252      	negs	r2, r2
1004022c:	4663      	mov	r3, ip
1004022e:	4093      	lsls	r3, r2
10040230:	4318      	orrs	r0, r3
10040232:	4770      	bx	lr

10040234 <__aeabi_llsl>:
10040234:	4091      	lsls	r1, r2
10040236:	0003      	movs	r3, r0
10040238:	4090      	lsls	r0, r2
1004023a:	469c      	mov	ip, r3
1004023c:	3a20      	subs	r2, #32
1004023e:	4093      	lsls	r3, r2
10040240:	4319      	orrs	r1, r3
10040242:	4252      	negs	r2, r2
10040244:	4663      	mov	r3, ip
10040246:	40d3      	lsrs	r3, r2
10040248:	4319      	orrs	r1, r3
1004024a:	4770      	bx	lr

1004024c <__aeabi_lmul>:
1004024c:	b5f0      	push	{r4, r5, r6, r7, lr}
1004024e:	46ce      	mov	lr, r9
10040250:	4699      	mov	r9, r3
10040252:	0c03      	lsrs	r3, r0, #16
10040254:	469c      	mov	ip, r3
10040256:	0413      	lsls	r3, r2, #16
10040258:	4647      	mov	r7, r8
1004025a:	0c1b      	lsrs	r3, r3, #16
1004025c:	001d      	movs	r5, r3
1004025e:	000e      	movs	r6, r1
10040260:	4661      	mov	r1, ip
10040262:	0404      	lsls	r4, r0, #16
10040264:	0c24      	lsrs	r4, r4, #16
10040266:	b580      	push	{r7, lr}
10040268:	0007      	movs	r7, r0
1004026a:	0c10      	lsrs	r0, r2, #16
1004026c:	434b      	muls	r3, r1
1004026e:	4365      	muls	r5, r4
10040270:	4341      	muls	r1, r0
10040272:	4360      	muls	r0, r4
10040274:	0c2c      	lsrs	r4, r5, #16
10040276:	18c0      	adds	r0, r0, r3
10040278:	1824      	adds	r4, r4, r0
1004027a:	468c      	mov	ip, r1
1004027c:	42a3      	cmp	r3, r4
1004027e:	d903      	bls.n	10040288 <__aeabi_lmul+0x3c>
10040280:	2380      	movs	r3, #128	@ 0x80
10040282:	025b      	lsls	r3, r3, #9
10040284:	4698      	mov	r8, r3
10040286:	44c4      	add	ip, r8
10040288:	4649      	mov	r1, r9
1004028a:	4379      	muls	r1, r7
1004028c:	4356      	muls	r6, r2
1004028e:	0c23      	lsrs	r3, r4, #16
10040290:	042d      	lsls	r5, r5, #16
10040292:	0c2d      	lsrs	r5, r5, #16
10040294:	1989      	adds	r1, r1, r6
10040296:	4463      	add	r3, ip
10040298:	0424      	lsls	r4, r4, #16
1004029a:	1960      	adds	r0, r4, r5
1004029c:	18c9      	adds	r1, r1, r3
1004029e:	bcc0      	pop	{r6, r7}
100402a0:	46b9      	mov	r9, r7
100402a2:	46b0      	mov	r8, r6
100402a4:	bdf0      	pop	{r4, r5, r6, r7, pc}
100402a6:	46c0      	nop			@ (mov r8, r8)

100402a8 <__aeabi_d2uiz>:
100402a8:	b570      	push	{r4, r5, r6, lr}
100402aa:	2200      	movs	r2, #0
100402ac:	4b0c      	ldr	r3, [pc, #48]	@ (100402e0 <__aeabi_d2uiz+0x38>)
100402ae:	0004      	movs	r4, r0
100402b0:	000d      	movs	r5, r1
100402b2:	f001 fa73 	bl	1004179c <__aeabi_dcmpge>
100402b6:	2800      	cmp	r0, #0
100402b8:	d104      	bne.n	100402c4 <__aeabi_d2uiz+0x1c>
100402ba:	0020      	movs	r0, r4
100402bc:	0029      	movs	r1, r5
100402be:	f001 f9d9 	bl	10041674 <__aeabi_d2iz>
100402c2:	bd70      	pop	{r4, r5, r6, pc}
100402c4:	4b06      	ldr	r3, [pc, #24]	@ (100402e0 <__aeabi_d2uiz+0x38>)
100402c6:	2200      	movs	r2, #0
100402c8:	0020      	movs	r0, r4
100402ca:	0029      	movs	r1, r5
100402cc:	f000 fe36 	bl	10040f3c <__aeabi_dsub>
100402d0:	f001 f9d0 	bl	10041674 <__aeabi_d2iz>
100402d4:	2380      	movs	r3, #128	@ 0x80
100402d6:	061b      	lsls	r3, r3, #24
100402d8:	469c      	mov	ip, r3
100402da:	4460      	add	r0, ip
100402dc:	e7f1      	b.n	100402c2 <__aeabi_d2uiz+0x1a>
100402de:	46c0      	nop			@ (mov r8, r8)
100402e0:	41e00000 	.word	0x41e00000

100402e4 <__aeabi_dadd>:
100402e4:	b5f0      	push	{r4, r5, r6, r7, lr}
100402e6:	4657      	mov	r7, sl
100402e8:	464e      	mov	r6, r9
100402ea:	4645      	mov	r5, r8
100402ec:	46de      	mov	lr, fp
100402ee:	b5e0      	push	{r5, r6, r7, lr}
100402f0:	b083      	sub	sp, #12
100402f2:	9000      	str	r0, [sp, #0]
100402f4:	9101      	str	r1, [sp, #4]
100402f6:	030c      	lsls	r4, r1, #12
100402f8:	004f      	lsls	r7, r1, #1
100402fa:	0fce      	lsrs	r6, r1, #31
100402fc:	0a61      	lsrs	r1, r4, #9
100402fe:	9c00      	ldr	r4, [sp, #0]
10040300:	031d      	lsls	r5, r3, #12
10040302:	0f64      	lsrs	r4, r4, #29
10040304:	430c      	orrs	r4, r1
10040306:	9900      	ldr	r1, [sp, #0]
10040308:	9200      	str	r2, [sp, #0]
1004030a:	9301      	str	r3, [sp, #4]
1004030c:	00c8      	lsls	r0, r1, #3
1004030e:	0059      	lsls	r1, r3, #1
10040310:	0d4b      	lsrs	r3, r1, #21
10040312:	4699      	mov	r9, r3
10040314:	9a00      	ldr	r2, [sp, #0]
10040316:	9b01      	ldr	r3, [sp, #4]
10040318:	0a6d      	lsrs	r5, r5, #9
1004031a:	0fd9      	lsrs	r1, r3, #31
1004031c:	0f53      	lsrs	r3, r2, #29
1004031e:	432b      	orrs	r3, r5
10040320:	469a      	mov	sl, r3
10040322:	9b00      	ldr	r3, [sp, #0]
10040324:	0d7f      	lsrs	r7, r7, #21
10040326:	00da      	lsls	r2, r3, #3
10040328:	4694      	mov	ip, r2
1004032a:	464a      	mov	r2, r9
1004032c:	46b0      	mov	r8, r6
1004032e:	1aba      	subs	r2, r7, r2
10040330:	428e      	cmp	r6, r1
10040332:	d100      	bne.n	10040336 <__aeabi_dadd+0x52>
10040334:	e0b0      	b.n	10040498 <__aeabi_dadd+0x1b4>
10040336:	2a00      	cmp	r2, #0
10040338:	dc00      	bgt.n	1004033c <__aeabi_dadd+0x58>
1004033a:	e078      	b.n	1004042e <__aeabi_dadd+0x14a>
1004033c:	4649      	mov	r1, r9
1004033e:	2900      	cmp	r1, #0
10040340:	d100      	bne.n	10040344 <__aeabi_dadd+0x60>
10040342:	e0e9      	b.n	10040518 <__aeabi_dadd+0x234>
10040344:	49c9      	ldr	r1, [pc, #804]	@ (1004066c <__aeabi_dadd+0x388>)
10040346:	428f      	cmp	r7, r1
10040348:	d100      	bne.n	1004034c <__aeabi_dadd+0x68>
1004034a:	e195      	b.n	10040678 <__aeabi_dadd+0x394>
1004034c:	2501      	movs	r5, #1
1004034e:	2a38      	cmp	r2, #56	@ 0x38
10040350:	dc16      	bgt.n	10040380 <__aeabi_dadd+0x9c>
10040352:	2180      	movs	r1, #128	@ 0x80
10040354:	4653      	mov	r3, sl
10040356:	0409      	lsls	r1, r1, #16
10040358:	430b      	orrs	r3, r1
1004035a:	469a      	mov	sl, r3
1004035c:	2a1f      	cmp	r2, #31
1004035e:	dd00      	ble.n	10040362 <__aeabi_dadd+0x7e>
10040360:	e1e7      	b.n	10040732 <__aeabi_dadd+0x44e>
10040362:	2120      	movs	r1, #32
10040364:	4655      	mov	r5, sl
10040366:	1a8b      	subs	r3, r1, r2
10040368:	4661      	mov	r1, ip
1004036a:	409d      	lsls	r5, r3
1004036c:	40d1      	lsrs	r1, r2
1004036e:	430d      	orrs	r5, r1
10040370:	4661      	mov	r1, ip
10040372:	4099      	lsls	r1, r3
10040374:	1e4b      	subs	r3, r1, #1
10040376:	4199      	sbcs	r1, r3
10040378:	4653      	mov	r3, sl
1004037a:	40d3      	lsrs	r3, r2
1004037c:	430d      	orrs	r5, r1
1004037e:	1ae4      	subs	r4, r4, r3
10040380:	1b45      	subs	r5, r0, r5
10040382:	42a8      	cmp	r0, r5
10040384:	4180      	sbcs	r0, r0
10040386:	4240      	negs	r0, r0
10040388:	1a24      	subs	r4, r4, r0
1004038a:	0223      	lsls	r3, r4, #8
1004038c:	d400      	bmi.n	10040390 <__aeabi_dadd+0xac>
1004038e:	e10f      	b.n	100405b0 <__aeabi_dadd+0x2cc>
10040390:	0264      	lsls	r4, r4, #9
10040392:	0a64      	lsrs	r4, r4, #9
10040394:	2c00      	cmp	r4, #0
10040396:	d100      	bne.n	1004039a <__aeabi_dadd+0xb6>
10040398:	e139      	b.n	1004060e <__aeabi_dadd+0x32a>
1004039a:	0020      	movs	r0, r4
1004039c:	f001 fa08 	bl	100417b0 <__clzsi2>
100403a0:	0003      	movs	r3, r0
100403a2:	3b08      	subs	r3, #8
100403a4:	2120      	movs	r1, #32
100403a6:	0028      	movs	r0, r5
100403a8:	1aca      	subs	r2, r1, r3
100403aa:	40d0      	lsrs	r0, r2
100403ac:	409c      	lsls	r4, r3
100403ae:	0002      	movs	r2, r0
100403b0:	409d      	lsls	r5, r3
100403b2:	4322      	orrs	r2, r4
100403b4:	429f      	cmp	r7, r3
100403b6:	dd00      	ble.n	100403ba <__aeabi_dadd+0xd6>
100403b8:	e173      	b.n	100406a2 <__aeabi_dadd+0x3be>
100403ba:	1bd8      	subs	r0, r3, r7
100403bc:	3001      	adds	r0, #1
100403be:	1a09      	subs	r1, r1, r0
100403c0:	002c      	movs	r4, r5
100403c2:	408d      	lsls	r5, r1
100403c4:	40c4      	lsrs	r4, r0
100403c6:	1e6b      	subs	r3, r5, #1
100403c8:	419d      	sbcs	r5, r3
100403ca:	0013      	movs	r3, r2
100403cc:	40c2      	lsrs	r2, r0
100403ce:	408b      	lsls	r3, r1
100403d0:	4325      	orrs	r5, r4
100403d2:	2700      	movs	r7, #0
100403d4:	0014      	movs	r4, r2
100403d6:	431d      	orrs	r5, r3
100403d8:	076b      	lsls	r3, r5, #29
100403da:	d009      	beq.n	100403f0 <__aeabi_dadd+0x10c>
100403dc:	230f      	movs	r3, #15
100403de:	402b      	ands	r3, r5
100403e0:	2b04      	cmp	r3, #4
100403e2:	d005      	beq.n	100403f0 <__aeabi_dadd+0x10c>
100403e4:	1d2b      	adds	r3, r5, #4
100403e6:	42ab      	cmp	r3, r5
100403e8:	41ad      	sbcs	r5, r5
100403ea:	426d      	negs	r5, r5
100403ec:	1964      	adds	r4, r4, r5
100403ee:	001d      	movs	r5, r3
100403f0:	0223      	lsls	r3, r4, #8
100403f2:	d400      	bmi.n	100403f6 <__aeabi_dadd+0x112>
100403f4:	e12d      	b.n	10040652 <__aeabi_dadd+0x36e>
100403f6:	4a9d      	ldr	r2, [pc, #628]	@ (1004066c <__aeabi_dadd+0x388>)
100403f8:	3701      	adds	r7, #1
100403fa:	4297      	cmp	r7, r2
100403fc:	d100      	bne.n	10040400 <__aeabi_dadd+0x11c>
100403fe:	e0d3      	b.n	100405a8 <__aeabi_dadd+0x2c4>
10040400:	4646      	mov	r6, r8
10040402:	499b      	ldr	r1, [pc, #620]	@ (10040670 <__aeabi_dadd+0x38c>)
10040404:	08ed      	lsrs	r5, r5, #3
10040406:	4021      	ands	r1, r4
10040408:	074a      	lsls	r2, r1, #29
1004040a:	432a      	orrs	r2, r5
1004040c:	057c      	lsls	r4, r7, #21
1004040e:	024d      	lsls	r5, r1, #9
10040410:	0b2d      	lsrs	r5, r5, #12
10040412:	0d64      	lsrs	r4, r4, #21
10040414:	0524      	lsls	r4, r4, #20
10040416:	432c      	orrs	r4, r5
10040418:	07f6      	lsls	r6, r6, #31
1004041a:	4334      	orrs	r4, r6
1004041c:	0010      	movs	r0, r2
1004041e:	0021      	movs	r1, r4
10040420:	b003      	add	sp, #12
10040422:	bcf0      	pop	{r4, r5, r6, r7}
10040424:	46bb      	mov	fp, r7
10040426:	46b2      	mov	sl, r6
10040428:	46a9      	mov	r9, r5
1004042a:	46a0      	mov	r8, r4
1004042c:	bdf0      	pop	{r4, r5, r6, r7, pc}
1004042e:	2a00      	cmp	r2, #0
10040430:	d100      	bne.n	10040434 <__aeabi_dadd+0x150>
10040432:	e084      	b.n	1004053e <__aeabi_dadd+0x25a>
10040434:	464a      	mov	r2, r9
10040436:	1bd2      	subs	r2, r2, r7
10040438:	2f00      	cmp	r7, #0
1004043a:	d000      	beq.n	1004043e <__aeabi_dadd+0x15a>
1004043c:	e16d      	b.n	1004071a <__aeabi_dadd+0x436>
1004043e:	0025      	movs	r5, r4
10040440:	4305      	orrs	r5, r0
10040442:	d100      	bne.n	10040446 <__aeabi_dadd+0x162>
10040444:	e127      	b.n	10040696 <__aeabi_dadd+0x3b2>
10040446:	1e56      	subs	r6, r2, #1
10040448:	2a01      	cmp	r2, #1
1004044a:	d100      	bne.n	1004044e <__aeabi_dadd+0x16a>
1004044c:	e23b      	b.n	100408c6 <__aeabi_dadd+0x5e2>
1004044e:	4d87      	ldr	r5, [pc, #540]	@ (1004066c <__aeabi_dadd+0x388>)
10040450:	42aa      	cmp	r2, r5
10040452:	d100      	bne.n	10040456 <__aeabi_dadd+0x172>
10040454:	e26a      	b.n	1004092c <__aeabi_dadd+0x648>
10040456:	2501      	movs	r5, #1
10040458:	2e38      	cmp	r6, #56	@ 0x38
1004045a:	dc12      	bgt.n	10040482 <__aeabi_dadd+0x19e>
1004045c:	0032      	movs	r2, r6
1004045e:	2a1f      	cmp	r2, #31
10040460:	dd00      	ble.n	10040464 <__aeabi_dadd+0x180>
10040462:	e1f8      	b.n	10040856 <__aeabi_dadd+0x572>
10040464:	2620      	movs	r6, #32
10040466:	0025      	movs	r5, r4
10040468:	1ab6      	subs	r6, r6, r2
1004046a:	0007      	movs	r7, r0
1004046c:	4653      	mov	r3, sl
1004046e:	40b0      	lsls	r0, r6
10040470:	40d4      	lsrs	r4, r2
10040472:	40b5      	lsls	r5, r6
10040474:	40d7      	lsrs	r7, r2
10040476:	1e46      	subs	r6, r0, #1
10040478:	41b0      	sbcs	r0, r6
1004047a:	1b1b      	subs	r3, r3, r4
1004047c:	469a      	mov	sl, r3
1004047e:	433d      	orrs	r5, r7
10040480:	4305      	orrs	r5, r0
10040482:	4662      	mov	r2, ip
10040484:	1b55      	subs	r5, r2, r5
10040486:	45ac      	cmp	ip, r5
10040488:	4192      	sbcs	r2, r2
1004048a:	4653      	mov	r3, sl
1004048c:	4252      	negs	r2, r2
1004048e:	000e      	movs	r6, r1
10040490:	464f      	mov	r7, r9
10040492:	4688      	mov	r8, r1
10040494:	1a9c      	subs	r4, r3, r2
10040496:	e778      	b.n	1004038a <__aeabi_dadd+0xa6>
10040498:	2a00      	cmp	r2, #0
1004049a:	dc00      	bgt.n	1004049e <__aeabi_dadd+0x1ba>
1004049c:	e08e      	b.n	100405bc <__aeabi_dadd+0x2d8>
1004049e:	4649      	mov	r1, r9
100404a0:	2900      	cmp	r1, #0
100404a2:	d175      	bne.n	10040590 <__aeabi_dadd+0x2ac>
100404a4:	4661      	mov	r1, ip
100404a6:	4653      	mov	r3, sl
100404a8:	4319      	orrs	r1, r3
100404aa:	d100      	bne.n	100404ae <__aeabi_dadd+0x1ca>
100404ac:	e0f6      	b.n	1004069c <__aeabi_dadd+0x3b8>
100404ae:	1e51      	subs	r1, r2, #1
100404b0:	2a01      	cmp	r2, #1
100404b2:	d100      	bne.n	100404b6 <__aeabi_dadd+0x1d2>
100404b4:	e191      	b.n	100407da <__aeabi_dadd+0x4f6>
100404b6:	4d6d      	ldr	r5, [pc, #436]	@ (1004066c <__aeabi_dadd+0x388>)
100404b8:	42aa      	cmp	r2, r5
100404ba:	d100      	bne.n	100404be <__aeabi_dadd+0x1da>
100404bc:	e0dc      	b.n	10040678 <__aeabi_dadd+0x394>
100404be:	2501      	movs	r5, #1
100404c0:	2938      	cmp	r1, #56	@ 0x38
100404c2:	dc14      	bgt.n	100404ee <__aeabi_dadd+0x20a>
100404c4:	000a      	movs	r2, r1
100404c6:	2a1f      	cmp	r2, #31
100404c8:	dd00      	ble.n	100404cc <__aeabi_dadd+0x1e8>
100404ca:	e1a2      	b.n	10040812 <__aeabi_dadd+0x52e>
100404cc:	2120      	movs	r1, #32
100404ce:	4653      	mov	r3, sl
100404d0:	1a89      	subs	r1, r1, r2
100404d2:	408b      	lsls	r3, r1
100404d4:	001d      	movs	r5, r3
100404d6:	4663      	mov	r3, ip
100404d8:	40d3      	lsrs	r3, r2
100404da:	431d      	orrs	r5, r3
100404dc:	4663      	mov	r3, ip
100404de:	408b      	lsls	r3, r1
100404e0:	0019      	movs	r1, r3
100404e2:	1e4b      	subs	r3, r1, #1
100404e4:	4199      	sbcs	r1, r3
100404e6:	4653      	mov	r3, sl
100404e8:	40d3      	lsrs	r3, r2
100404ea:	430d      	orrs	r5, r1
100404ec:	18e4      	adds	r4, r4, r3
100404ee:	182d      	adds	r5, r5, r0
100404f0:	4285      	cmp	r5, r0
100404f2:	4180      	sbcs	r0, r0
100404f4:	4240      	negs	r0, r0
100404f6:	1824      	adds	r4, r4, r0
100404f8:	0223      	lsls	r3, r4, #8
100404fa:	d559      	bpl.n	100405b0 <__aeabi_dadd+0x2cc>
100404fc:	4b5b      	ldr	r3, [pc, #364]	@ (1004066c <__aeabi_dadd+0x388>)
100404fe:	3701      	adds	r7, #1
10040500:	429f      	cmp	r7, r3
10040502:	d051      	beq.n	100405a8 <__aeabi_dadd+0x2c4>
10040504:	2101      	movs	r1, #1
10040506:	4b5a      	ldr	r3, [pc, #360]	@ (10040670 <__aeabi_dadd+0x38c>)
10040508:	086a      	lsrs	r2, r5, #1
1004050a:	401c      	ands	r4, r3
1004050c:	4029      	ands	r1, r5
1004050e:	430a      	orrs	r2, r1
10040510:	07e5      	lsls	r5, r4, #31
10040512:	4315      	orrs	r5, r2
10040514:	0864      	lsrs	r4, r4, #1
10040516:	e75f      	b.n	100403d8 <__aeabi_dadd+0xf4>
10040518:	4661      	mov	r1, ip
1004051a:	4653      	mov	r3, sl
1004051c:	4319      	orrs	r1, r3
1004051e:	d100      	bne.n	10040522 <__aeabi_dadd+0x23e>
10040520:	e0bc      	b.n	1004069c <__aeabi_dadd+0x3b8>
10040522:	1e51      	subs	r1, r2, #1
10040524:	2a01      	cmp	r2, #1
10040526:	d100      	bne.n	1004052a <__aeabi_dadd+0x246>
10040528:	e164      	b.n	100407f4 <__aeabi_dadd+0x510>
1004052a:	4d50      	ldr	r5, [pc, #320]	@ (1004066c <__aeabi_dadd+0x388>)
1004052c:	42aa      	cmp	r2, r5
1004052e:	d100      	bne.n	10040532 <__aeabi_dadd+0x24e>
10040530:	e16a      	b.n	10040808 <__aeabi_dadd+0x524>
10040532:	2501      	movs	r5, #1
10040534:	2938      	cmp	r1, #56	@ 0x38
10040536:	dd00      	ble.n	1004053a <__aeabi_dadd+0x256>
10040538:	e722      	b.n	10040380 <__aeabi_dadd+0x9c>
1004053a:	000a      	movs	r2, r1
1004053c:	e70e      	b.n	1004035c <__aeabi_dadd+0x78>
1004053e:	4a4d      	ldr	r2, [pc, #308]	@ (10040674 <__aeabi_dadd+0x390>)
10040540:	1c7d      	adds	r5, r7, #1
10040542:	4215      	tst	r5, r2
10040544:	d000      	beq.n	10040548 <__aeabi_dadd+0x264>
10040546:	e0d0      	b.n	100406ea <__aeabi_dadd+0x406>
10040548:	0025      	movs	r5, r4
1004054a:	4662      	mov	r2, ip
1004054c:	4653      	mov	r3, sl
1004054e:	4305      	orrs	r5, r0
10040550:	431a      	orrs	r2, r3
10040552:	2f00      	cmp	r7, #0
10040554:	d000      	beq.n	10040558 <__aeabi_dadd+0x274>
10040556:	e137      	b.n	100407c8 <__aeabi_dadd+0x4e4>
10040558:	2d00      	cmp	r5, #0
1004055a:	d100      	bne.n	1004055e <__aeabi_dadd+0x27a>
1004055c:	e1a8      	b.n	100408b0 <__aeabi_dadd+0x5cc>
1004055e:	2a00      	cmp	r2, #0
10040560:	d100      	bne.n	10040564 <__aeabi_dadd+0x280>
10040562:	e16a      	b.n	1004083a <__aeabi_dadd+0x556>
10040564:	4663      	mov	r3, ip
10040566:	1ac5      	subs	r5, r0, r3
10040568:	4653      	mov	r3, sl
1004056a:	1ae2      	subs	r2, r4, r3
1004056c:	42a8      	cmp	r0, r5
1004056e:	419b      	sbcs	r3, r3
10040570:	425b      	negs	r3, r3
10040572:	1ad3      	subs	r3, r2, r3
10040574:	021a      	lsls	r2, r3, #8
10040576:	d400      	bmi.n	1004057a <__aeabi_dadd+0x296>
10040578:	e203      	b.n	10040982 <__aeabi_dadd+0x69e>
1004057a:	4663      	mov	r3, ip
1004057c:	1a1d      	subs	r5, r3, r0
1004057e:	45ac      	cmp	ip, r5
10040580:	4192      	sbcs	r2, r2
10040582:	4653      	mov	r3, sl
10040584:	4252      	negs	r2, r2
10040586:	1b1c      	subs	r4, r3, r4
10040588:	000e      	movs	r6, r1
1004058a:	4688      	mov	r8, r1
1004058c:	1aa4      	subs	r4, r4, r2
1004058e:	e723      	b.n	100403d8 <__aeabi_dadd+0xf4>
10040590:	4936      	ldr	r1, [pc, #216]	@ (1004066c <__aeabi_dadd+0x388>)
10040592:	428f      	cmp	r7, r1
10040594:	d070      	beq.n	10040678 <__aeabi_dadd+0x394>
10040596:	2501      	movs	r5, #1
10040598:	2a38      	cmp	r2, #56	@ 0x38
1004059a:	dca8      	bgt.n	100404ee <__aeabi_dadd+0x20a>
1004059c:	2180      	movs	r1, #128	@ 0x80
1004059e:	4653      	mov	r3, sl
100405a0:	0409      	lsls	r1, r1, #16
100405a2:	430b      	orrs	r3, r1
100405a4:	469a      	mov	sl, r3
100405a6:	e78e      	b.n	100404c6 <__aeabi_dadd+0x1e2>
100405a8:	003c      	movs	r4, r7
100405aa:	2500      	movs	r5, #0
100405ac:	2200      	movs	r2, #0
100405ae:	e731      	b.n	10040414 <__aeabi_dadd+0x130>
100405b0:	2307      	movs	r3, #7
100405b2:	402b      	ands	r3, r5
100405b4:	2b00      	cmp	r3, #0
100405b6:	d000      	beq.n	100405ba <__aeabi_dadd+0x2d6>
100405b8:	e710      	b.n	100403dc <__aeabi_dadd+0xf8>
100405ba:	e093      	b.n	100406e4 <__aeabi_dadd+0x400>
100405bc:	2a00      	cmp	r2, #0
100405be:	d074      	beq.n	100406aa <__aeabi_dadd+0x3c6>
100405c0:	464a      	mov	r2, r9
100405c2:	1bd2      	subs	r2, r2, r7
100405c4:	2f00      	cmp	r7, #0
100405c6:	d100      	bne.n	100405ca <__aeabi_dadd+0x2e6>
100405c8:	e0c7      	b.n	1004075a <__aeabi_dadd+0x476>
100405ca:	4928      	ldr	r1, [pc, #160]	@ (1004066c <__aeabi_dadd+0x388>)
100405cc:	4589      	cmp	r9, r1
100405ce:	d100      	bne.n	100405d2 <__aeabi_dadd+0x2ee>
100405d0:	e185      	b.n	100408de <__aeabi_dadd+0x5fa>
100405d2:	2501      	movs	r5, #1
100405d4:	2a38      	cmp	r2, #56	@ 0x38
100405d6:	dc12      	bgt.n	100405fe <__aeabi_dadd+0x31a>
100405d8:	2180      	movs	r1, #128	@ 0x80
100405da:	0409      	lsls	r1, r1, #16
100405dc:	430c      	orrs	r4, r1
100405de:	2a1f      	cmp	r2, #31
100405e0:	dd00      	ble.n	100405e4 <__aeabi_dadd+0x300>
100405e2:	e1ab      	b.n	1004093c <__aeabi_dadd+0x658>
100405e4:	2120      	movs	r1, #32
100405e6:	0025      	movs	r5, r4
100405e8:	1a89      	subs	r1, r1, r2
100405ea:	0007      	movs	r7, r0
100405ec:	4088      	lsls	r0, r1
100405ee:	408d      	lsls	r5, r1
100405f0:	40d7      	lsrs	r7, r2
100405f2:	1e41      	subs	r1, r0, #1
100405f4:	4188      	sbcs	r0, r1
100405f6:	40d4      	lsrs	r4, r2
100405f8:	433d      	orrs	r5, r7
100405fa:	4305      	orrs	r5, r0
100405fc:	44a2      	add	sl, r4
100405fe:	4465      	add	r5, ip
10040600:	4565      	cmp	r5, ip
10040602:	4192      	sbcs	r2, r2
10040604:	4252      	negs	r2, r2
10040606:	4452      	add	r2, sl
10040608:	0014      	movs	r4, r2
1004060a:	464f      	mov	r7, r9
1004060c:	e774      	b.n	100404f8 <__aeabi_dadd+0x214>
1004060e:	0028      	movs	r0, r5
10040610:	f001 f8ce 	bl	100417b0 <__clzsi2>
10040614:	0003      	movs	r3, r0
10040616:	3318      	adds	r3, #24
10040618:	2b1f      	cmp	r3, #31
1004061a:	dc00      	bgt.n	1004061e <__aeabi_dadd+0x33a>
1004061c:	e6c2      	b.n	100403a4 <__aeabi_dadd+0xc0>
1004061e:	002a      	movs	r2, r5
10040620:	3808      	subs	r0, #8
10040622:	4082      	lsls	r2, r0
10040624:	429f      	cmp	r7, r3
10040626:	dd00      	ble.n	1004062a <__aeabi_dadd+0x346>
10040628:	e0a9      	b.n	1004077e <__aeabi_dadd+0x49a>
1004062a:	1bdb      	subs	r3, r3, r7
1004062c:	1c58      	adds	r0, r3, #1
1004062e:	281f      	cmp	r0, #31
10040630:	dc00      	bgt.n	10040634 <__aeabi_dadd+0x350>
10040632:	e1ac      	b.n	1004098e <__aeabi_dadd+0x6aa>
10040634:	0015      	movs	r5, r2
10040636:	3b1f      	subs	r3, #31
10040638:	40dd      	lsrs	r5, r3
1004063a:	2820      	cmp	r0, #32
1004063c:	d005      	beq.n	1004064a <__aeabi_dadd+0x366>
1004063e:	2340      	movs	r3, #64	@ 0x40
10040640:	1a1b      	subs	r3, r3, r0
10040642:	409a      	lsls	r2, r3
10040644:	1e53      	subs	r3, r2, #1
10040646:	419a      	sbcs	r2, r3
10040648:	4315      	orrs	r5, r2
1004064a:	2307      	movs	r3, #7
1004064c:	2700      	movs	r7, #0
1004064e:	402b      	ands	r3, r5
10040650:	e7b0      	b.n	100405b4 <__aeabi_dadd+0x2d0>
10040652:	08ed      	lsrs	r5, r5, #3
10040654:	4b05      	ldr	r3, [pc, #20]	@ (1004066c <__aeabi_dadd+0x388>)
10040656:	0762      	lsls	r2, r4, #29
10040658:	432a      	orrs	r2, r5
1004065a:	08e4      	lsrs	r4, r4, #3
1004065c:	429f      	cmp	r7, r3
1004065e:	d00f      	beq.n	10040680 <__aeabi_dadd+0x39c>
10040660:	0324      	lsls	r4, r4, #12
10040662:	0b25      	lsrs	r5, r4, #12
10040664:	057c      	lsls	r4, r7, #21
10040666:	0d64      	lsrs	r4, r4, #21
10040668:	e6d4      	b.n	10040414 <__aeabi_dadd+0x130>
1004066a:	46c0      	nop			@ (mov r8, r8)
1004066c:	000007ff 	.word	0x000007ff
10040670:	ff7fffff 	.word	0xff7fffff
10040674:	000007fe 	.word	0x000007fe
10040678:	08c0      	lsrs	r0, r0, #3
1004067a:	0762      	lsls	r2, r4, #29
1004067c:	4302      	orrs	r2, r0
1004067e:	08e4      	lsrs	r4, r4, #3
10040680:	0013      	movs	r3, r2
10040682:	4323      	orrs	r3, r4
10040684:	d100      	bne.n	10040688 <__aeabi_dadd+0x3a4>
10040686:	e186      	b.n	10040996 <__aeabi_dadd+0x6b2>
10040688:	2580      	movs	r5, #128	@ 0x80
1004068a:	032d      	lsls	r5, r5, #12
1004068c:	4325      	orrs	r5, r4
1004068e:	032d      	lsls	r5, r5, #12
10040690:	4cc3      	ldr	r4, [pc, #780]	@ (100409a0 <__aeabi_dadd+0x6bc>)
10040692:	0b2d      	lsrs	r5, r5, #12
10040694:	e6be      	b.n	10040414 <__aeabi_dadd+0x130>
10040696:	4660      	mov	r0, ip
10040698:	4654      	mov	r4, sl
1004069a:	000e      	movs	r6, r1
1004069c:	0017      	movs	r7, r2
1004069e:	08c5      	lsrs	r5, r0, #3
100406a0:	e7d8      	b.n	10040654 <__aeabi_dadd+0x370>
100406a2:	4cc0      	ldr	r4, [pc, #768]	@ (100409a4 <__aeabi_dadd+0x6c0>)
100406a4:	1aff      	subs	r7, r7, r3
100406a6:	4014      	ands	r4, r2
100406a8:	e696      	b.n	100403d8 <__aeabi_dadd+0xf4>
100406aa:	4abf      	ldr	r2, [pc, #764]	@ (100409a8 <__aeabi_dadd+0x6c4>)
100406ac:	1c79      	adds	r1, r7, #1
100406ae:	4211      	tst	r1, r2
100406b0:	d16b      	bne.n	1004078a <__aeabi_dadd+0x4a6>
100406b2:	0022      	movs	r2, r4
100406b4:	4302      	orrs	r2, r0
100406b6:	2f00      	cmp	r7, #0
100406b8:	d000      	beq.n	100406bc <__aeabi_dadd+0x3d8>
100406ba:	e0db      	b.n	10040874 <__aeabi_dadd+0x590>
100406bc:	2a00      	cmp	r2, #0
100406be:	d100      	bne.n	100406c2 <__aeabi_dadd+0x3de>
100406c0:	e12d      	b.n	1004091e <__aeabi_dadd+0x63a>
100406c2:	4662      	mov	r2, ip
100406c4:	4653      	mov	r3, sl
100406c6:	431a      	orrs	r2, r3
100406c8:	d100      	bne.n	100406cc <__aeabi_dadd+0x3e8>
100406ca:	e0b6      	b.n	1004083a <__aeabi_dadd+0x556>
100406cc:	4663      	mov	r3, ip
100406ce:	18c5      	adds	r5, r0, r3
100406d0:	4285      	cmp	r5, r0
100406d2:	4180      	sbcs	r0, r0
100406d4:	4454      	add	r4, sl
100406d6:	4240      	negs	r0, r0
100406d8:	1824      	adds	r4, r4, r0
100406da:	0223      	lsls	r3, r4, #8
100406dc:	d502      	bpl.n	100406e4 <__aeabi_dadd+0x400>
100406de:	000f      	movs	r7, r1
100406e0:	4bb0      	ldr	r3, [pc, #704]	@ (100409a4 <__aeabi_dadd+0x6c0>)
100406e2:	401c      	ands	r4, r3
100406e4:	003a      	movs	r2, r7
100406e6:	0028      	movs	r0, r5
100406e8:	e7d8      	b.n	1004069c <__aeabi_dadd+0x3b8>
100406ea:	4662      	mov	r2, ip
100406ec:	1a85      	subs	r5, r0, r2
100406ee:	42a8      	cmp	r0, r5
100406f0:	4192      	sbcs	r2, r2
100406f2:	4653      	mov	r3, sl
100406f4:	4252      	negs	r2, r2
100406f6:	4691      	mov	r9, r2
100406f8:	1ae3      	subs	r3, r4, r3
100406fa:	001a      	movs	r2, r3
100406fc:	464b      	mov	r3, r9
100406fe:	1ad2      	subs	r2, r2, r3
10040700:	0013      	movs	r3, r2
10040702:	4691      	mov	r9, r2
10040704:	021a      	lsls	r2, r3, #8
10040706:	d454      	bmi.n	100407b2 <__aeabi_dadd+0x4ce>
10040708:	464a      	mov	r2, r9
1004070a:	464c      	mov	r4, r9
1004070c:	432a      	orrs	r2, r5
1004070e:	d000      	beq.n	10040712 <__aeabi_dadd+0x42e>
10040710:	e640      	b.n	10040394 <__aeabi_dadd+0xb0>
10040712:	2600      	movs	r6, #0
10040714:	2400      	movs	r4, #0
10040716:	2500      	movs	r5, #0
10040718:	e67c      	b.n	10040414 <__aeabi_dadd+0x130>
1004071a:	4da1      	ldr	r5, [pc, #644]	@ (100409a0 <__aeabi_dadd+0x6bc>)
1004071c:	45a9      	cmp	r9, r5
1004071e:	d100      	bne.n	10040722 <__aeabi_dadd+0x43e>
10040720:	e090      	b.n	10040844 <__aeabi_dadd+0x560>
10040722:	2501      	movs	r5, #1
10040724:	2a38      	cmp	r2, #56	@ 0x38
10040726:	dd00      	ble.n	1004072a <__aeabi_dadd+0x446>
10040728:	e6ab      	b.n	10040482 <__aeabi_dadd+0x19e>
1004072a:	2580      	movs	r5, #128	@ 0x80
1004072c:	042d      	lsls	r5, r5, #16
1004072e:	432c      	orrs	r4, r5
10040730:	e695      	b.n	1004045e <__aeabi_dadd+0x17a>
10040732:	0011      	movs	r1, r2
10040734:	4655      	mov	r5, sl
10040736:	3920      	subs	r1, #32
10040738:	40cd      	lsrs	r5, r1
1004073a:	46a9      	mov	r9, r5
1004073c:	2a20      	cmp	r2, #32
1004073e:	d006      	beq.n	1004074e <__aeabi_dadd+0x46a>
10040740:	2140      	movs	r1, #64	@ 0x40
10040742:	4653      	mov	r3, sl
10040744:	1a8a      	subs	r2, r1, r2
10040746:	4093      	lsls	r3, r2
10040748:	4662      	mov	r2, ip
1004074a:	431a      	orrs	r2, r3
1004074c:	4694      	mov	ip, r2
1004074e:	4665      	mov	r5, ip
10040750:	1e6b      	subs	r3, r5, #1
10040752:	419d      	sbcs	r5, r3
10040754:	464b      	mov	r3, r9
10040756:	431d      	orrs	r5, r3
10040758:	e612      	b.n	10040380 <__aeabi_dadd+0x9c>
1004075a:	0021      	movs	r1, r4
1004075c:	4301      	orrs	r1, r0
1004075e:	d100      	bne.n	10040762 <__aeabi_dadd+0x47e>
10040760:	e0c4      	b.n	100408ec <__aeabi_dadd+0x608>
10040762:	1e51      	subs	r1, r2, #1
10040764:	2a01      	cmp	r2, #1
10040766:	d100      	bne.n	1004076a <__aeabi_dadd+0x486>
10040768:	e0fb      	b.n	10040962 <__aeabi_dadd+0x67e>
1004076a:	4d8d      	ldr	r5, [pc, #564]	@ (100409a0 <__aeabi_dadd+0x6bc>)
1004076c:	42aa      	cmp	r2, r5
1004076e:	d100      	bne.n	10040772 <__aeabi_dadd+0x48e>
10040770:	e0b5      	b.n	100408de <__aeabi_dadd+0x5fa>
10040772:	2501      	movs	r5, #1
10040774:	2938      	cmp	r1, #56	@ 0x38
10040776:	dd00      	ble.n	1004077a <__aeabi_dadd+0x496>
10040778:	e741      	b.n	100405fe <__aeabi_dadd+0x31a>
1004077a:	000a      	movs	r2, r1
1004077c:	e72f      	b.n	100405de <__aeabi_dadd+0x2fa>
1004077e:	4c89      	ldr	r4, [pc, #548]	@ (100409a4 <__aeabi_dadd+0x6c0>)
10040780:	1aff      	subs	r7, r7, r3
10040782:	4014      	ands	r4, r2
10040784:	0762      	lsls	r2, r4, #29
10040786:	08e4      	lsrs	r4, r4, #3
10040788:	e76a      	b.n	10040660 <__aeabi_dadd+0x37c>
1004078a:	4a85      	ldr	r2, [pc, #532]	@ (100409a0 <__aeabi_dadd+0x6bc>)
1004078c:	4291      	cmp	r1, r2
1004078e:	d100      	bne.n	10040792 <__aeabi_dadd+0x4ae>
10040790:	e0e3      	b.n	1004095a <__aeabi_dadd+0x676>
10040792:	4663      	mov	r3, ip
10040794:	18c2      	adds	r2, r0, r3
10040796:	4282      	cmp	r2, r0
10040798:	4180      	sbcs	r0, r0
1004079a:	0023      	movs	r3, r4
1004079c:	4240      	negs	r0, r0
1004079e:	4453      	add	r3, sl
100407a0:	181b      	adds	r3, r3, r0
100407a2:	07dd      	lsls	r5, r3, #31
100407a4:	085c      	lsrs	r4, r3, #1
100407a6:	2307      	movs	r3, #7
100407a8:	0852      	lsrs	r2, r2, #1
100407aa:	4315      	orrs	r5, r2
100407ac:	000f      	movs	r7, r1
100407ae:	402b      	ands	r3, r5
100407b0:	e700      	b.n	100405b4 <__aeabi_dadd+0x2d0>
100407b2:	4663      	mov	r3, ip
100407b4:	1a1d      	subs	r5, r3, r0
100407b6:	45ac      	cmp	ip, r5
100407b8:	4192      	sbcs	r2, r2
100407ba:	4653      	mov	r3, sl
100407bc:	4252      	negs	r2, r2
100407be:	1b1c      	subs	r4, r3, r4
100407c0:	000e      	movs	r6, r1
100407c2:	4688      	mov	r8, r1
100407c4:	1aa4      	subs	r4, r4, r2
100407c6:	e5e5      	b.n	10040394 <__aeabi_dadd+0xb0>
100407c8:	2d00      	cmp	r5, #0
100407ca:	d000      	beq.n	100407ce <__aeabi_dadd+0x4ea>
100407cc:	e091      	b.n	100408f2 <__aeabi_dadd+0x60e>
100407ce:	2a00      	cmp	r2, #0
100407d0:	d138      	bne.n	10040844 <__aeabi_dadd+0x560>
100407d2:	2480      	movs	r4, #128	@ 0x80
100407d4:	2600      	movs	r6, #0
100407d6:	0324      	lsls	r4, r4, #12
100407d8:	e756      	b.n	10040688 <__aeabi_dadd+0x3a4>
100407da:	4663      	mov	r3, ip
100407dc:	18c5      	adds	r5, r0, r3
100407de:	4285      	cmp	r5, r0
100407e0:	4180      	sbcs	r0, r0
100407e2:	4454      	add	r4, sl
100407e4:	4240      	negs	r0, r0
100407e6:	1824      	adds	r4, r4, r0
100407e8:	2701      	movs	r7, #1
100407ea:	0223      	lsls	r3, r4, #8
100407ec:	d400      	bmi.n	100407f0 <__aeabi_dadd+0x50c>
100407ee:	e6df      	b.n	100405b0 <__aeabi_dadd+0x2cc>
100407f0:	2702      	movs	r7, #2
100407f2:	e687      	b.n	10040504 <__aeabi_dadd+0x220>
100407f4:	4663      	mov	r3, ip
100407f6:	1ac5      	subs	r5, r0, r3
100407f8:	42a8      	cmp	r0, r5
100407fa:	4180      	sbcs	r0, r0
100407fc:	4653      	mov	r3, sl
100407fe:	4240      	negs	r0, r0
10040800:	1ae4      	subs	r4, r4, r3
10040802:	2701      	movs	r7, #1
10040804:	1a24      	subs	r4, r4, r0
10040806:	e5c0      	b.n	1004038a <__aeabi_dadd+0xa6>
10040808:	0762      	lsls	r2, r4, #29
1004080a:	08c0      	lsrs	r0, r0, #3
1004080c:	4302      	orrs	r2, r0
1004080e:	08e4      	lsrs	r4, r4, #3
10040810:	e736      	b.n	10040680 <__aeabi_dadd+0x39c>
10040812:	0011      	movs	r1, r2
10040814:	4653      	mov	r3, sl
10040816:	3920      	subs	r1, #32
10040818:	40cb      	lsrs	r3, r1
1004081a:	4699      	mov	r9, r3
1004081c:	2a20      	cmp	r2, #32
1004081e:	d006      	beq.n	1004082e <__aeabi_dadd+0x54a>
10040820:	2140      	movs	r1, #64	@ 0x40
10040822:	4653      	mov	r3, sl
10040824:	1a8a      	subs	r2, r1, r2
10040826:	4093      	lsls	r3, r2
10040828:	4662      	mov	r2, ip
1004082a:	431a      	orrs	r2, r3
1004082c:	4694      	mov	ip, r2
1004082e:	4665      	mov	r5, ip
10040830:	1e6b      	subs	r3, r5, #1
10040832:	419d      	sbcs	r5, r3
10040834:	464b      	mov	r3, r9
10040836:	431d      	orrs	r5, r3
10040838:	e659      	b.n	100404ee <__aeabi_dadd+0x20a>
1004083a:	0762      	lsls	r2, r4, #29
1004083c:	08c0      	lsrs	r0, r0, #3
1004083e:	4302      	orrs	r2, r0
10040840:	08e4      	lsrs	r4, r4, #3
10040842:	e70d      	b.n	10040660 <__aeabi_dadd+0x37c>
10040844:	4653      	mov	r3, sl
10040846:	075a      	lsls	r2, r3, #29
10040848:	4663      	mov	r3, ip
1004084a:	08d8      	lsrs	r0, r3, #3
1004084c:	4653      	mov	r3, sl
1004084e:	000e      	movs	r6, r1
10040850:	4302      	orrs	r2, r0
10040852:	08dc      	lsrs	r4, r3, #3
10040854:	e714      	b.n	10040680 <__aeabi_dadd+0x39c>
10040856:	0015      	movs	r5, r2
10040858:	0026      	movs	r6, r4
1004085a:	3d20      	subs	r5, #32
1004085c:	40ee      	lsrs	r6, r5
1004085e:	2a20      	cmp	r2, #32
10040860:	d003      	beq.n	1004086a <__aeabi_dadd+0x586>
10040862:	2540      	movs	r5, #64	@ 0x40
10040864:	1aaa      	subs	r2, r5, r2
10040866:	4094      	lsls	r4, r2
10040868:	4320      	orrs	r0, r4
1004086a:	1e42      	subs	r2, r0, #1
1004086c:	4190      	sbcs	r0, r2
1004086e:	0005      	movs	r5, r0
10040870:	4335      	orrs	r5, r6
10040872:	e606      	b.n	10040482 <__aeabi_dadd+0x19e>
10040874:	2a00      	cmp	r2, #0
10040876:	d07c      	beq.n	10040972 <__aeabi_dadd+0x68e>
10040878:	4662      	mov	r2, ip
1004087a:	4653      	mov	r3, sl
1004087c:	08c0      	lsrs	r0, r0, #3
1004087e:	431a      	orrs	r2, r3
10040880:	d100      	bne.n	10040884 <__aeabi_dadd+0x5a0>
10040882:	e6fa      	b.n	1004067a <__aeabi_dadd+0x396>
10040884:	0762      	lsls	r2, r4, #29
10040886:	4310      	orrs	r0, r2
10040888:	2280      	movs	r2, #128	@ 0x80
1004088a:	08e4      	lsrs	r4, r4, #3
1004088c:	0312      	lsls	r2, r2, #12
1004088e:	4214      	tst	r4, r2
10040890:	d008      	beq.n	100408a4 <__aeabi_dadd+0x5c0>
10040892:	08d9      	lsrs	r1, r3, #3
10040894:	4211      	tst	r1, r2
10040896:	d105      	bne.n	100408a4 <__aeabi_dadd+0x5c0>
10040898:	4663      	mov	r3, ip
1004089a:	08d8      	lsrs	r0, r3, #3
1004089c:	4653      	mov	r3, sl
1004089e:	000c      	movs	r4, r1
100408a0:	075b      	lsls	r3, r3, #29
100408a2:	4318      	orrs	r0, r3
100408a4:	0f42      	lsrs	r2, r0, #29
100408a6:	00c0      	lsls	r0, r0, #3
100408a8:	08c0      	lsrs	r0, r0, #3
100408aa:	0752      	lsls	r2, r2, #29
100408ac:	4302      	orrs	r2, r0
100408ae:	e6e7      	b.n	10040680 <__aeabi_dadd+0x39c>
100408b0:	2a00      	cmp	r2, #0
100408b2:	d100      	bne.n	100408b6 <__aeabi_dadd+0x5d2>
100408b4:	e72d      	b.n	10040712 <__aeabi_dadd+0x42e>
100408b6:	4663      	mov	r3, ip
100408b8:	08d8      	lsrs	r0, r3, #3
100408ba:	4653      	mov	r3, sl
100408bc:	075a      	lsls	r2, r3, #29
100408be:	000e      	movs	r6, r1
100408c0:	4302      	orrs	r2, r0
100408c2:	08dc      	lsrs	r4, r3, #3
100408c4:	e6cc      	b.n	10040660 <__aeabi_dadd+0x37c>
100408c6:	4663      	mov	r3, ip
100408c8:	1a1d      	subs	r5, r3, r0
100408ca:	45ac      	cmp	ip, r5
100408cc:	4192      	sbcs	r2, r2
100408ce:	4653      	mov	r3, sl
100408d0:	4252      	negs	r2, r2
100408d2:	1b1c      	subs	r4, r3, r4
100408d4:	000e      	movs	r6, r1
100408d6:	4688      	mov	r8, r1
100408d8:	1aa4      	subs	r4, r4, r2
100408da:	3701      	adds	r7, #1
100408dc:	e555      	b.n	1004038a <__aeabi_dadd+0xa6>
100408de:	4663      	mov	r3, ip
100408e0:	08d9      	lsrs	r1, r3, #3
100408e2:	4653      	mov	r3, sl
100408e4:	075a      	lsls	r2, r3, #29
100408e6:	430a      	orrs	r2, r1
100408e8:	08dc      	lsrs	r4, r3, #3
100408ea:	e6c9      	b.n	10040680 <__aeabi_dadd+0x39c>
100408ec:	4660      	mov	r0, ip
100408ee:	4654      	mov	r4, sl
100408f0:	e6d4      	b.n	1004069c <__aeabi_dadd+0x3b8>
100408f2:	08c0      	lsrs	r0, r0, #3
100408f4:	2a00      	cmp	r2, #0
100408f6:	d100      	bne.n	100408fa <__aeabi_dadd+0x616>
100408f8:	e6bf      	b.n	1004067a <__aeabi_dadd+0x396>
100408fa:	0762      	lsls	r2, r4, #29
100408fc:	4310      	orrs	r0, r2
100408fe:	2280      	movs	r2, #128	@ 0x80
10040900:	08e4      	lsrs	r4, r4, #3
10040902:	0312      	lsls	r2, r2, #12
10040904:	4214      	tst	r4, r2
10040906:	d0cd      	beq.n	100408a4 <__aeabi_dadd+0x5c0>
10040908:	08dd      	lsrs	r5, r3, #3
1004090a:	4215      	tst	r5, r2
1004090c:	d1ca      	bne.n	100408a4 <__aeabi_dadd+0x5c0>
1004090e:	4663      	mov	r3, ip
10040910:	08d8      	lsrs	r0, r3, #3
10040912:	4653      	mov	r3, sl
10040914:	075b      	lsls	r3, r3, #29
10040916:	000e      	movs	r6, r1
10040918:	002c      	movs	r4, r5
1004091a:	4318      	orrs	r0, r3
1004091c:	e7c2      	b.n	100408a4 <__aeabi_dadd+0x5c0>
1004091e:	4663      	mov	r3, ip
10040920:	08d9      	lsrs	r1, r3, #3
10040922:	4653      	mov	r3, sl
10040924:	075a      	lsls	r2, r3, #29
10040926:	430a      	orrs	r2, r1
10040928:	08dc      	lsrs	r4, r3, #3
1004092a:	e699      	b.n	10040660 <__aeabi_dadd+0x37c>
1004092c:	4663      	mov	r3, ip
1004092e:	08d8      	lsrs	r0, r3, #3
10040930:	4653      	mov	r3, sl
10040932:	075a      	lsls	r2, r3, #29
10040934:	000e      	movs	r6, r1
10040936:	4302      	orrs	r2, r0
10040938:	08dc      	lsrs	r4, r3, #3
1004093a:	e6a1      	b.n	10040680 <__aeabi_dadd+0x39c>
1004093c:	0011      	movs	r1, r2
1004093e:	0027      	movs	r7, r4
10040940:	3920      	subs	r1, #32
10040942:	40cf      	lsrs	r7, r1
10040944:	2a20      	cmp	r2, #32
10040946:	d003      	beq.n	10040950 <__aeabi_dadd+0x66c>
10040948:	2140      	movs	r1, #64	@ 0x40
1004094a:	1a8a      	subs	r2, r1, r2
1004094c:	4094      	lsls	r4, r2
1004094e:	4320      	orrs	r0, r4
10040950:	1e42      	subs	r2, r0, #1
10040952:	4190      	sbcs	r0, r2
10040954:	0005      	movs	r5, r0
10040956:	433d      	orrs	r5, r7
10040958:	e651      	b.n	100405fe <__aeabi_dadd+0x31a>
1004095a:	000c      	movs	r4, r1
1004095c:	2500      	movs	r5, #0
1004095e:	2200      	movs	r2, #0
10040960:	e558      	b.n	10040414 <__aeabi_dadd+0x130>
10040962:	4460      	add	r0, ip
10040964:	4560      	cmp	r0, ip
10040966:	4192      	sbcs	r2, r2
10040968:	4454      	add	r4, sl
1004096a:	4252      	negs	r2, r2
1004096c:	0005      	movs	r5, r0
1004096e:	18a4      	adds	r4, r4, r2
10040970:	e73a      	b.n	100407e8 <__aeabi_dadd+0x504>
10040972:	4653      	mov	r3, sl
10040974:	075a      	lsls	r2, r3, #29
10040976:	4663      	mov	r3, ip
10040978:	08d9      	lsrs	r1, r3, #3
1004097a:	4653      	mov	r3, sl
1004097c:	430a      	orrs	r2, r1
1004097e:	08dc      	lsrs	r4, r3, #3
10040980:	e67e      	b.n	10040680 <__aeabi_dadd+0x39c>
10040982:	001a      	movs	r2, r3
10040984:	001c      	movs	r4, r3
10040986:	432a      	orrs	r2, r5
10040988:	d000      	beq.n	1004098c <__aeabi_dadd+0x6a8>
1004098a:	e6ab      	b.n	100406e4 <__aeabi_dadd+0x400>
1004098c:	e6c1      	b.n	10040712 <__aeabi_dadd+0x42e>
1004098e:	2120      	movs	r1, #32
10040990:	2500      	movs	r5, #0
10040992:	1a09      	subs	r1, r1, r0
10040994:	e519      	b.n	100403ca <__aeabi_dadd+0xe6>
10040996:	2200      	movs	r2, #0
10040998:	2500      	movs	r5, #0
1004099a:	4c01      	ldr	r4, [pc, #4]	@ (100409a0 <__aeabi_dadd+0x6bc>)
1004099c:	e53a      	b.n	10040414 <__aeabi_dadd+0x130>
1004099e:	46c0      	nop			@ (mov r8, r8)
100409a0:	000007ff 	.word	0x000007ff
100409a4:	ff7fffff 	.word	0xff7fffff
100409a8:	000007fe 	.word	0x000007fe

100409ac <__aeabi_dmul>:
100409ac:	b5f0      	push	{r4, r5, r6, r7, lr}
100409ae:	4657      	mov	r7, sl
100409b0:	46de      	mov	lr, fp
100409b2:	464e      	mov	r6, r9
100409b4:	4645      	mov	r5, r8
100409b6:	b5e0      	push	{r5, r6, r7, lr}
100409b8:	001f      	movs	r7, r3
100409ba:	030b      	lsls	r3, r1, #12
100409bc:	0b1b      	lsrs	r3, r3, #12
100409be:	0016      	movs	r6, r2
100409c0:	469a      	mov	sl, r3
100409c2:	0fca      	lsrs	r2, r1, #31
100409c4:	004b      	lsls	r3, r1, #1
100409c6:	0004      	movs	r4, r0
100409c8:	4693      	mov	fp, r2
100409ca:	b087      	sub	sp, #28
100409cc:	0d5b      	lsrs	r3, r3, #21
100409ce:	d100      	bne.n	100409d2 <__aeabi_dmul+0x26>
100409d0:	e0d5      	b.n	10040b7e <__aeabi_dmul+0x1d2>
100409d2:	4abb      	ldr	r2, [pc, #748]	@ (10040cc0 <__aeabi_dmul+0x314>)
100409d4:	4293      	cmp	r3, r2
100409d6:	d100      	bne.n	100409da <__aeabi_dmul+0x2e>
100409d8:	e0f8      	b.n	10040bcc <__aeabi_dmul+0x220>
100409da:	4651      	mov	r1, sl
100409dc:	0f42      	lsrs	r2, r0, #29
100409de:	00c9      	lsls	r1, r1, #3
100409e0:	430a      	orrs	r2, r1
100409e2:	2180      	movs	r1, #128	@ 0x80
100409e4:	0409      	lsls	r1, r1, #16
100409e6:	4311      	orrs	r1, r2
100409e8:	00c2      	lsls	r2, r0, #3
100409ea:	4691      	mov	r9, r2
100409ec:	4ab5      	ldr	r2, [pc, #724]	@ (10040cc4 <__aeabi_dmul+0x318>)
100409ee:	468a      	mov	sl, r1
100409f0:	189d      	adds	r5, r3, r2
100409f2:	2300      	movs	r3, #0
100409f4:	4698      	mov	r8, r3
100409f6:	9302      	str	r3, [sp, #8]
100409f8:	033c      	lsls	r4, r7, #12
100409fa:	007b      	lsls	r3, r7, #1
100409fc:	0ffa      	lsrs	r2, r7, #31
100409fe:	0030      	movs	r0, r6
10040a00:	0b24      	lsrs	r4, r4, #12
10040a02:	0d5b      	lsrs	r3, r3, #21
10040a04:	9200      	str	r2, [sp, #0]
10040a06:	d100      	bne.n	10040a0a <__aeabi_dmul+0x5e>
10040a08:	e096      	b.n	10040b38 <__aeabi_dmul+0x18c>
10040a0a:	4aad      	ldr	r2, [pc, #692]	@ (10040cc0 <__aeabi_dmul+0x314>)
10040a0c:	4293      	cmp	r3, r2
10040a0e:	d031      	beq.n	10040a74 <__aeabi_dmul+0xc8>
10040a10:	0f72      	lsrs	r2, r6, #29
10040a12:	00e4      	lsls	r4, r4, #3
10040a14:	4322      	orrs	r2, r4
10040a16:	2480      	movs	r4, #128	@ 0x80
10040a18:	0424      	lsls	r4, r4, #16
10040a1a:	4314      	orrs	r4, r2
10040a1c:	4aa9      	ldr	r2, [pc, #676]	@ (10040cc4 <__aeabi_dmul+0x318>)
10040a1e:	00f0      	lsls	r0, r6, #3
10040a20:	4694      	mov	ip, r2
10040a22:	4463      	add	r3, ip
10040a24:	195b      	adds	r3, r3, r5
10040a26:	1c5a      	adds	r2, r3, #1
10040a28:	9201      	str	r2, [sp, #4]
10040a2a:	4642      	mov	r2, r8
10040a2c:	2600      	movs	r6, #0
10040a2e:	2a0a      	cmp	r2, #10
10040a30:	dc42      	bgt.n	10040ab8 <__aeabi_dmul+0x10c>
10040a32:	465a      	mov	r2, fp
10040a34:	9900      	ldr	r1, [sp, #0]
10040a36:	404a      	eors	r2, r1
10040a38:	4693      	mov	fp, r2
10040a3a:	4642      	mov	r2, r8
10040a3c:	2a02      	cmp	r2, #2
10040a3e:	dc32      	bgt.n	10040aa6 <__aeabi_dmul+0xfa>
10040a40:	3a01      	subs	r2, #1
10040a42:	2a01      	cmp	r2, #1
10040a44:	d900      	bls.n	10040a48 <__aeabi_dmul+0x9c>
10040a46:	e149      	b.n	10040cdc <__aeabi_dmul+0x330>
10040a48:	2e02      	cmp	r6, #2
10040a4a:	d100      	bne.n	10040a4e <__aeabi_dmul+0xa2>
10040a4c:	e0ca      	b.n	10040be4 <__aeabi_dmul+0x238>
10040a4e:	2e01      	cmp	r6, #1
10040a50:	d13d      	bne.n	10040ace <__aeabi_dmul+0x122>
10040a52:	2300      	movs	r3, #0
10040a54:	2400      	movs	r4, #0
10040a56:	2200      	movs	r2, #0
10040a58:	0010      	movs	r0, r2
10040a5a:	465a      	mov	r2, fp
10040a5c:	051b      	lsls	r3, r3, #20
10040a5e:	4323      	orrs	r3, r4
10040a60:	07d2      	lsls	r2, r2, #31
10040a62:	4313      	orrs	r3, r2
10040a64:	0019      	movs	r1, r3
10040a66:	b007      	add	sp, #28
10040a68:	bcf0      	pop	{r4, r5, r6, r7}
10040a6a:	46bb      	mov	fp, r7
10040a6c:	46b2      	mov	sl, r6
10040a6e:	46a9      	mov	r9, r5
10040a70:	46a0      	mov	r8, r4
10040a72:	bdf0      	pop	{r4, r5, r6, r7, pc}
10040a74:	4b92      	ldr	r3, [pc, #584]	@ (10040cc0 <__aeabi_dmul+0x314>)
10040a76:	4326      	orrs	r6, r4
10040a78:	18eb      	adds	r3, r5, r3
10040a7a:	2e00      	cmp	r6, #0
10040a7c:	d100      	bne.n	10040a80 <__aeabi_dmul+0xd4>
10040a7e:	e0bb      	b.n	10040bf8 <__aeabi_dmul+0x24c>
10040a80:	2203      	movs	r2, #3
10040a82:	4641      	mov	r1, r8
10040a84:	4311      	orrs	r1, r2
10040a86:	465a      	mov	r2, fp
10040a88:	4688      	mov	r8, r1
10040a8a:	9900      	ldr	r1, [sp, #0]
10040a8c:	404a      	eors	r2, r1
10040a8e:	2180      	movs	r1, #128	@ 0x80
10040a90:	0109      	lsls	r1, r1, #4
10040a92:	468c      	mov	ip, r1
10040a94:	0029      	movs	r1, r5
10040a96:	4461      	add	r1, ip
10040a98:	9101      	str	r1, [sp, #4]
10040a9a:	4641      	mov	r1, r8
10040a9c:	290a      	cmp	r1, #10
10040a9e:	dd00      	ble.n	10040aa2 <__aeabi_dmul+0xf6>
10040aa0:	e233      	b.n	10040f0a <__aeabi_dmul+0x55e>
10040aa2:	4693      	mov	fp, r2
10040aa4:	2603      	movs	r6, #3
10040aa6:	4642      	mov	r2, r8
10040aa8:	2701      	movs	r7, #1
10040aaa:	4097      	lsls	r7, r2
10040aac:	21a6      	movs	r1, #166	@ 0xa6
10040aae:	003a      	movs	r2, r7
10040ab0:	00c9      	lsls	r1, r1, #3
10040ab2:	400a      	ands	r2, r1
10040ab4:	420f      	tst	r7, r1
10040ab6:	d031      	beq.n	10040b1c <__aeabi_dmul+0x170>
10040ab8:	9e02      	ldr	r6, [sp, #8]
10040aba:	2e02      	cmp	r6, #2
10040abc:	d100      	bne.n	10040ac0 <__aeabi_dmul+0x114>
10040abe:	e235      	b.n	10040f2c <__aeabi_dmul+0x580>
10040ac0:	2e03      	cmp	r6, #3
10040ac2:	d100      	bne.n	10040ac6 <__aeabi_dmul+0x11a>
10040ac4:	e1d2      	b.n	10040e6c <__aeabi_dmul+0x4c0>
10040ac6:	4654      	mov	r4, sl
10040ac8:	4648      	mov	r0, r9
10040aca:	2e01      	cmp	r6, #1
10040acc:	d0c1      	beq.n	10040a52 <__aeabi_dmul+0xa6>
10040ace:	9a01      	ldr	r2, [sp, #4]
10040ad0:	4b7d      	ldr	r3, [pc, #500]	@ (10040cc8 <__aeabi_dmul+0x31c>)
10040ad2:	4694      	mov	ip, r2
10040ad4:	4463      	add	r3, ip
10040ad6:	2b00      	cmp	r3, #0
10040ad8:	dc00      	bgt.n	10040adc <__aeabi_dmul+0x130>
10040ada:	e0c0      	b.n	10040c5e <__aeabi_dmul+0x2b2>
10040adc:	0742      	lsls	r2, r0, #29
10040ade:	d009      	beq.n	10040af4 <__aeabi_dmul+0x148>
10040ae0:	220f      	movs	r2, #15
10040ae2:	4002      	ands	r2, r0
10040ae4:	2a04      	cmp	r2, #4
10040ae6:	d005      	beq.n	10040af4 <__aeabi_dmul+0x148>
10040ae8:	1d02      	adds	r2, r0, #4
10040aea:	4282      	cmp	r2, r0
10040aec:	4180      	sbcs	r0, r0
10040aee:	4240      	negs	r0, r0
10040af0:	1824      	adds	r4, r4, r0
10040af2:	0010      	movs	r0, r2
10040af4:	01e2      	lsls	r2, r4, #7
10040af6:	d506      	bpl.n	10040b06 <__aeabi_dmul+0x15a>
10040af8:	4b74      	ldr	r3, [pc, #464]	@ (10040ccc <__aeabi_dmul+0x320>)
10040afa:	9a01      	ldr	r2, [sp, #4]
10040afc:	401c      	ands	r4, r3
10040afe:	2380      	movs	r3, #128	@ 0x80
10040b00:	4694      	mov	ip, r2
10040b02:	00db      	lsls	r3, r3, #3
10040b04:	4463      	add	r3, ip
10040b06:	4a72      	ldr	r2, [pc, #456]	@ (10040cd0 <__aeabi_dmul+0x324>)
10040b08:	4293      	cmp	r3, r2
10040b0a:	dc6b      	bgt.n	10040be4 <__aeabi_dmul+0x238>
10040b0c:	0762      	lsls	r2, r4, #29
10040b0e:	08c0      	lsrs	r0, r0, #3
10040b10:	0264      	lsls	r4, r4, #9
10040b12:	055b      	lsls	r3, r3, #21
10040b14:	4302      	orrs	r2, r0
10040b16:	0b24      	lsrs	r4, r4, #12
10040b18:	0d5b      	lsrs	r3, r3, #21
10040b1a:	e79d      	b.n	10040a58 <__aeabi_dmul+0xac>
10040b1c:	2190      	movs	r1, #144	@ 0x90
10040b1e:	0089      	lsls	r1, r1, #2
10040b20:	420f      	tst	r7, r1
10040b22:	d163      	bne.n	10040bec <__aeabi_dmul+0x240>
10040b24:	2288      	movs	r2, #136	@ 0x88
10040b26:	423a      	tst	r2, r7
10040b28:	d100      	bne.n	10040b2c <__aeabi_dmul+0x180>
10040b2a:	e0d7      	b.n	10040cdc <__aeabi_dmul+0x330>
10040b2c:	9b00      	ldr	r3, [sp, #0]
10040b2e:	46a2      	mov	sl, r4
10040b30:	469b      	mov	fp, r3
10040b32:	4681      	mov	r9, r0
10040b34:	9602      	str	r6, [sp, #8]
10040b36:	e7bf      	b.n	10040ab8 <__aeabi_dmul+0x10c>
10040b38:	0023      	movs	r3, r4
10040b3a:	4333      	orrs	r3, r6
10040b3c:	d100      	bne.n	10040b40 <__aeabi_dmul+0x194>
10040b3e:	e07f      	b.n	10040c40 <__aeabi_dmul+0x294>
10040b40:	2c00      	cmp	r4, #0
10040b42:	d100      	bne.n	10040b46 <__aeabi_dmul+0x19a>
10040b44:	e1ad      	b.n	10040ea2 <__aeabi_dmul+0x4f6>
10040b46:	0020      	movs	r0, r4
10040b48:	f000 fe32 	bl	100417b0 <__clzsi2>
10040b4c:	0002      	movs	r2, r0
10040b4e:	0003      	movs	r3, r0
10040b50:	3a0b      	subs	r2, #11
10040b52:	201d      	movs	r0, #29
10040b54:	0019      	movs	r1, r3
10040b56:	1a82      	subs	r2, r0, r2
10040b58:	0030      	movs	r0, r6
10040b5a:	3908      	subs	r1, #8
10040b5c:	40d0      	lsrs	r0, r2
10040b5e:	408c      	lsls	r4, r1
10040b60:	4304      	orrs	r4, r0
10040b62:	0030      	movs	r0, r6
10040b64:	4088      	lsls	r0, r1
10040b66:	4a5b      	ldr	r2, [pc, #364]	@ (10040cd4 <__aeabi_dmul+0x328>)
10040b68:	1aeb      	subs	r3, r5, r3
10040b6a:	4694      	mov	ip, r2
10040b6c:	4463      	add	r3, ip
10040b6e:	1c5a      	adds	r2, r3, #1
10040b70:	9201      	str	r2, [sp, #4]
10040b72:	4642      	mov	r2, r8
10040b74:	2600      	movs	r6, #0
10040b76:	2a0a      	cmp	r2, #10
10040b78:	dc00      	bgt.n	10040b7c <__aeabi_dmul+0x1d0>
10040b7a:	e75a      	b.n	10040a32 <__aeabi_dmul+0x86>
10040b7c:	e79c      	b.n	10040ab8 <__aeabi_dmul+0x10c>
10040b7e:	4653      	mov	r3, sl
10040b80:	4303      	orrs	r3, r0
10040b82:	4699      	mov	r9, r3
10040b84:	d054      	beq.n	10040c30 <__aeabi_dmul+0x284>
10040b86:	4653      	mov	r3, sl
10040b88:	2b00      	cmp	r3, #0
10040b8a:	d100      	bne.n	10040b8e <__aeabi_dmul+0x1e2>
10040b8c:	e177      	b.n	10040e7e <__aeabi_dmul+0x4d2>
10040b8e:	4650      	mov	r0, sl
10040b90:	f000 fe0e 	bl	100417b0 <__clzsi2>
10040b94:	230b      	movs	r3, #11
10040b96:	425b      	negs	r3, r3
10040b98:	469c      	mov	ip, r3
10040b9a:	0002      	movs	r2, r0
10040b9c:	4484      	add	ip, r0
10040b9e:	0011      	movs	r1, r2
10040ba0:	4650      	mov	r0, sl
10040ba2:	3908      	subs	r1, #8
10040ba4:	4088      	lsls	r0, r1
10040ba6:	231d      	movs	r3, #29
10040ba8:	4680      	mov	r8, r0
10040baa:	4660      	mov	r0, ip
10040bac:	1a1b      	subs	r3, r3, r0
10040bae:	0020      	movs	r0, r4
10040bb0:	40d8      	lsrs	r0, r3
10040bb2:	0003      	movs	r3, r0
10040bb4:	4640      	mov	r0, r8
10040bb6:	4303      	orrs	r3, r0
10040bb8:	469a      	mov	sl, r3
10040bba:	0023      	movs	r3, r4
10040bbc:	408b      	lsls	r3, r1
10040bbe:	4699      	mov	r9, r3
10040bc0:	2300      	movs	r3, #0
10040bc2:	4d44      	ldr	r5, [pc, #272]	@ (10040cd4 <__aeabi_dmul+0x328>)
10040bc4:	4698      	mov	r8, r3
10040bc6:	1aad      	subs	r5, r5, r2
10040bc8:	9302      	str	r3, [sp, #8]
10040bca:	e715      	b.n	100409f8 <__aeabi_dmul+0x4c>
10040bcc:	4652      	mov	r2, sl
10040bce:	4302      	orrs	r2, r0
10040bd0:	4691      	mov	r9, r2
10040bd2:	d126      	bne.n	10040c22 <__aeabi_dmul+0x276>
10040bd4:	2200      	movs	r2, #0
10040bd6:	001d      	movs	r5, r3
10040bd8:	2302      	movs	r3, #2
10040bda:	4692      	mov	sl, r2
10040bdc:	3208      	adds	r2, #8
10040bde:	4690      	mov	r8, r2
10040be0:	9302      	str	r3, [sp, #8]
10040be2:	e709      	b.n	100409f8 <__aeabi_dmul+0x4c>
10040be4:	2400      	movs	r4, #0
10040be6:	2200      	movs	r2, #0
10040be8:	4b35      	ldr	r3, [pc, #212]	@ (10040cc0 <__aeabi_dmul+0x314>)
10040bea:	e735      	b.n	10040a58 <__aeabi_dmul+0xac>
10040bec:	2300      	movs	r3, #0
10040bee:	2480      	movs	r4, #128	@ 0x80
10040bf0:	469b      	mov	fp, r3
10040bf2:	0324      	lsls	r4, r4, #12
10040bf4:	4b32      	ldr	r3, [pc, #200]	@ (10040cc0 <__aeabi_dmul+0x314>)
10040bf6:	e72f      	b.n	10040a58 <__aeabi_dmul+0xac>
10040bf8:	2202      	movs	r2, #2
10040bfa:	4641      	mov	r1, r8
10040bfc:	4311      	orrs	r1, r2
10040bfe:	2280      	movs	r2, #128	@ 0x80
10040c00:	0112      	lsls	r2, r2, #4
10040c02:	4694      	mov	ip, r2
10040c04:	002a      	movs	r2, r5
10040c06:	4462      	add	r2, ip
10040c08:	4688      	mov	r8, r1
10040c0a:	9201      	str	r2, [sp, #4]
10040c0c:	290a      	cmp	r1, #10
10040c0e:	dd00      	ble.n	10040c12 <__aeabi_dmul+0x266>
10040c10:	e752      	b.n	10040ab8 <__aeabi_dmul+0x10c>
10040c12:	465a      	mov	r2, fp
10040c14:	2000      	movs	r0, #0
10040c16:	9900      	ldr	r1, [sp, #0]
10040c18:	0004      	movs	r4, r0
10040c1a:	404a      	eors	r2, r1
10040c1c:	4693      	mov	fp, r2
10040c1e:	2602      	movs	r6, #2
10040c20:	e70b      	b.n	10040a3a <__aeabi_dmul+0x8e>
10040c22:	220c      	movs	r2, #12
10040c24:	001d      	movs	r5, r3
10040c26:	2303      	movs	r3, #3
10040c28:	4681      	mov	r9, r0
10040c2a:	4690      	mov	r8, r2
10040c2c:	9302      	str	r3, [sp, #8]
10040c2e:	e6e3      	b.n	100409f8 <__aeabi_dmul+0x4c>
10040c30:	2300      	movs	r3, #0
10040c32:	469a      	mov	sl, r3
10040c34:	3304      	adds	r3, #4
10040c36:	4698      	mov	r8, r3
10040c38:	3b03      	subs	r3, #3
10040c3a:	2500      	movs	r5, #0
10040c3c:	9302      	str	r3, [sp, #8]
10040c3e:	e6db      	b.n	100409f8 <__aeabi_dmul+0x4c>
10040c40:	4642      	mov	r2, r8
10040c42:	3301      	adds	r3, #1
10040c44:	431a      	orrs	r2, r3
10040c46:	002b      	movs	r3, r5
10040c48:	4690      	mov	r8, r2
10040c4a:	1c5a      	adds	r2, r3, #1
10040c4c:	9201      	str	r2, [sp, #4]
10040c4e:	4642      	mov	r2, r8
10040c50:	2400      	movs	r4, #0
10040c52:	2000      	movs	r0, #0
10040c54:	2601      	movs	r6, #1
10040c56:	2a0a      	cmp	r2, #10
10040c58:	dc00      	bgt.n	10040c5c <__aeabi_dmul+0x2b0>
10040c5a:	e6ea      	b.n	10040a32 <__aeabi_dmul+0x86>
10040c5c:	e72c      	b.n	10040ab8 <__aeabi_dmul+0x10c>
10040c5e:	2201      	movs	r2, #1
10040c60:	1ad2      	subs	r2, r2, r3
10040c62:	2a38      	cmp	r2, #56	@ 0x38
10040c64:	dd00      	ble.n	10040c68 <__aeabi_dmul+0x2bc>
10040c66:	e6f4      	b.n	10040a52 <__aeabi_dmul+0xa6>
10040c68:	2a1f      	cmp	r2, #31
10040c6a:	dc00      	bgt.n	10040c6e <__aeabi_dmul+0x2c2>
10040c6c:	e12a      	b.n	10040ec4 <__aeabi_dmul+0x518>
10040c6e:	211f      	movs	r1, #31
10040c70:	4249      	negs	r1, r1
10040c72:	1acb      	subs	r3, r1, r3
10040c74:	0021      	movs	r1, r4
10040c76:	40d9      	lsrs	r1, r3
10040c78:	000b      	movs	r3, r1
10040c7a:	2a20      	cmp	r2, #32
10040c7c:	d005      	beq.n	10040c8a <__aeabi_dmul+0x2de>
10040c7e:	4a16      	ldr	r2, [pc, #88]	@ (10040cd8 <__aeabi_dmul+0x32c>)
10040c80:	9d01      	ldr	r5, [sp, #4]
10040c82:	4694      	mov	ip, r2
10040c84:	4465      	add	r5, ip
10040c86:	40ac      	lsls	r4, r5
10040c88:	4320      	orrs	r0, r4
10040c8a:	1e42      	subs	r2, r0, #1
10040c8c:	4190      	sbcs	r0, r2
10040c8e:	4318      	orrs	r0, r3
10040c90:	2307      	movs	r3, #7
10040c92:	0019      	movs	r1, r3
10040c94:	2400      	movs	r4, #0
10040c96:	4001      	ands	r1, r0
10040c98:	4203      	tst	r3, r0
10040c9a:	d00c      	beq.n	10040cb6 <__aeabi_dmul+0x30a>
10040c9c:	230f      	movs	r3, #15
10040c9e:	4003      	ands	r3, r0
10040ca0:	2b04      	cmp	r3, #4
10040ca2:	d100      	bne.n	10040ca6 <__aeabi_dmul+0x2fa>
10040ca4:	e140      	b.n	10040f28 <__aeabi_dmul+0x57c>
10040ca6:	1d03      	adds	r3, r0, #4
10040ca8:	4283      	cmp	r3, r0
10040caa:	41a4      	sbcs	r4, r4
10040cac:	0018      	movs	r0, r3
10040cae:	4264      	negs	r4, r4
10040cb0:	0761      	lsls	r1, r4, #29
10040cb2:	0264      	lsls	r4, r4, #9
10040cb4:	0b24      	lsrs	r4, r4, #12
10040cb6:	08c2      	lsrs	r2, r0, #3
10040cb8:	2300      	movs	r3, #0
10040cba:	430a      	orrs	r2, r1
10040cbc:	e6cc      	b.n	10040a58 <__aeabi_dmul+0xac>
10040cbe:	46c0      	nop			@ (mov r8, r8)
10040cc0:	000007ff 	.word	0x000007ff
10040cc4:	fffffc01 	.word	0xfffffc01
10040cc8:	000003ff 	.word	0x000003ff
10040ccc:	feffffff 	.word	0xfeffffff
10040cd0:	000007fe 	.word	0x000007fe
10040cd4:	fffffc0d 	.word	0xfffffc0d
10040cd8:	0000043e 	.word	0x0000043e
10040cdc:	4649      	mov	r1, r9
10040cde:	464a      	mov	r2, r9
10040ce0:	0409      	lsls	r1, r1, #16
10040ce2:	0c09      	lsrs	r1, r1, #16
10040ce4:	000d      	movs	r5, r1
10040ce6:	0c16      	lsrs	r6, r2, #16
10040ce8:	0c02      	lsrs	r2, r0, #16
10040cea:	0400      	lsls	r0, r0, #16
10040cec:	0c00      	lsrs	r0, r0, #16
10040cee:	4345      	muls	r5, r0
10040cf0:	46ac      	mov	ip, r5
10040cf2:	0005      	movs	r5, r0
10040cf4:	4375      	muls	r5, r6
10040cf6:	46a8      	mov	r8, r5
10040cf8:	0015      	movs	r5, r2
10040cfa:	000f      	movs	r7, r1
10040cfc:	4375      	muls	r5, r6
10040cfe:	9200      	str	r2, [sp, #0]
10040d00:	9502      	str	r5, [sp, #8]
10040d02:	002a      	movs	r2, r5
10040d04:	9d00      	ldr	r5, [sp, #0]
10040d06:	436f      	muls	r7, r5
10040d08:	4665      	mov	r5, ip
10040d0a:	0c2d      	lsrs	r5, r5, #16
10040d0c:	46a9      	mov	r9, r5
10040d0e:	4447      	add	r7, r8
10040d10:	444f      	add	r7, r9
10040d12:	45b8      	cmp	r8, r7
10040d14:	d905      	bls.n	10040d22 <__aeabi_dmul+0x376>
10040d16:	0015      	movs	r5, r2
10040d18:	2280      	movs	r2, #128	@ 0x80
10040d1a:	0252      	lsls	r2, r2, #9
10040d1c:	4690      	mov	r8, r2
10040d1e:	4445      	add	r5, r8
10040d20:	9502      	str	r5, [sp, #8]
10040d22:	0c3d      	lsrs	r5, r7, #16
10040d24:	9503      	str	r5, [sp, #12]
10040d26:	4665      	mov	r5, ip
10040d28:	042d      	lsls	r5, r5, #16
10040d2a:	043f      	lsls	r7, r7, #16
10040d2c:	0c2d      	lsrs	r5, r5, #16
10040d2e:	46ac      	mov	ip, r5
10040d30:	003d      	movs	r5, r7
10040d32:	4465      	add	r5, ip
10040d34:	9504      	str	r5, [sp, #16]
10040d36:	0c25      	lsrs	r5, r4, #16
10040d38:	0424      	lsls	r4, r4, #16
10040d3a:	0c24      	lsrs	r4, r4, #16
10040d3c:	46ac      	mov	ip, r5
10040d3e:	0025      	movs	r5, r4
10040d40:	4375      	muls	r5, r6
10040d42:	46a8      	mov	r8, r5
10040d44:	4665      	mov	r5, ip
10040d46:	000f      	movs	r7, r1
10040d48:	4369      	muls	r1, r5
10040d4a:	4441      	add	r1, r8
10040d4c:	4689      	mov	r9, r1
10040d4e:	4367      	muls	r7, r4
10040d50:	0c39      	lsrs	r1, r7, #16
10040d52:	4449      	add	r1, r9
10040d54:	436e      	muls	r6, r5
10040d56:	4588      	cmp	r8, r1
10040d58:	d903      	bls.n	10040d62 <__aeabi_dmul+0x3b6>
10040d5a:	2280      	movs	r2, #128	@ 0x80
10040d5c:	0252      	lsls	r2, r2, #9
10040d5e:	4690      	mov	r8, r2
10040d60:	4446      	add	r6, r8
10040d62:	0c0d      	lsrs	r5, r1, #16
10040d64:	46a8      	mov	r8, r5
10040d66:	0035      	movs	r5, r6
10040d68:	4445      	add	r5, r8
10040d6a:	9505      	str	r5, [sp, #20]
10040d6c:	9d03      	ldr	r5, [sp, #12]
10040d6e:	043f      	lsls	r7, r7, #16
10040d70:	46a8      	mov	r8, r5
10040d72:	0c3f      	lsrs	r7, r7, #16
10040d74:	0409      	lsls	r1, r1, #16
10040d76:	19c9      	adds	r1, r1, r7
10040d78:	4488      	add	r8, r1
10040d7a:	4645      	mov	r5, r8
10040d7c:	9503      	str	r5, [sp, #12]
10040d7e:	4655      	mov	r5, sl
10040d80:	042e      	lsls	r6, r5, #16
10040d82:	0c36      	lsrs	r6, r6, #16
10040d84:	0c2f      	lsrs	r7, r5, #16
10040d86:	0035      	movs	r5, r6
10040d88:	4345      	muls	r5, r0
10040d8a:	4378      	muls	r0, r7
10040d8c:	4681      	mov	r9, r0
10040d8e:	0038      	movs	r0, r7
10040d90:	46a8      	mov	r8, r5
10040d92:	0c2d      	lsrs	r5, r5, #16
10040d94:	46aa      	mov	sl, r5
10040d96:	9a00      	ldr	r2, [sp, #0]
10040d98:	4350      	muls	r0, r2
10040d9a:	4372      	muls	r2, r6
10040d9c:	444a      	add	r2, r9
10040d9e:	4452      	add	r2, sl
10040da0:	4591      	cmp	r9, r2
10040da2:	d903      	bls.n	10040dac <__aeabi_dmul+0x400>
10040da4:	2580      	movs	r5, #128	@ 0x80
10040da6:	026d      	lsls	r5, r5, #9
10040da8:	46a9      	mov	r9, r5
10040daa:	4448      	add	r0, r9
10040dac:	0c15      	lsrs	r5, r2, #16
10040dae:	46a9      	mov	r9, r5
10040db0:	4645      	mov	r5, r8
10040db2:	042d      	lsls	r5, r5, #16
10040db4:	0c2d      	lsrs	r5, r5, #16
10040db6:	46a8      	mov	r8, r5
10040db8:	4665      	mov	r5, ip
10040dba:	437d      	muls	r5, r7
10040dbc:	0412      	lsls	r2, r2, #16
10040dbe:	4448      	add	r0, r9
10040dc0:	4490      	add	r8, r2
10040dc2:	46a9      	mov	r9, r5
10040dc4:	0032      	movs	r2, r6
10040dc6:	4665      	mov	r5, ip
10040dc8:	4362      	muls	r2, r4
10040dca:	436e      	muls	r6, r5
10040dcc:	437c      	muls	r4, r7
10040dce:	0c17      	lsrs	r7, r2, #16
10040dd0:	1936      	adds	r6, r6, r4
10040dd2:	19bf      	adds	r7, r7, r6
10040dd4:	42bc      	cmp	r4, r7
10040dd6:	d903      	bls.n	10040de0 <__aeabi_dmul+0x434>
10040dd8:	2480      	movs	r4, #128	@ 0x80
10040dda:	0264      	lsls	r4, r4, #9
10040ddc:	46a4      	mov	ip, r4
10040dde:	44e1      	add	r9, ip
10040de0:	9c02      	ldr	r4, [sp, #8]
10040de2:	9e03      	ldr	r6, [sp, #12]
10040de4:	46a4      	mov	ip, r4
10040de6:	9d05      	ldr	r5, [sp, #20]
10040de8:	4466      	add	r6, ip
10040dea:	428e      	cmp	r6, r1
10040dec:	4189      	sbcs	r1, r1
10040dee:	46ac      	mov	ip, r5
10040df0:	0412      	lsls	r2, r2, #16
10040df2:	043c      	lsls	r4, r7, #16
10040df4:	0c12      	lsrs	r2, r2, #16
10040df6:	18a2      	adds	r2, r4, r2
10040df8:	4462      	add	r2, ip
10040dfa:	4249      	negs	r1, r1
10040dfc:	1854      	adds	r4, r2, r1
10040dfe:	4446      	add	r6, r8
10040e00:	46a4      	mov	ip, r4
10040e02:	4546      	cmp	r6, r8
10040e04:	41a4      	sbcs	r4, r4
10040e06:	4682      	mov	sl, r0
10040e08:	4264      	negs	r4, r4
10040e0a:	46a0      	mov	r8, r4
10040e0c:	42aa      	cmp	r2, r5
10040e0e:	4192      	sbcs	r2, r2
10040e10:	458c      	cmp	ip, r1
10040e12:	4189      	sbcs	r1, r1
10040e14:	44e2      	add	sl, ip
10040e16:	44d0      	add	r8, sl
10040e18:	4249      	negs	r1, r1
10040e1a:	4252      	negs	r2, r2
10040e1c:	430a      	orrs	r2, r1
10040e1e:	45a0      	cmp	r8, r4
10040e20:	41a4      	sbcs	r4, r4
10040e22:	4582      	cmp	sl, r0
10040e24:	4189      	sbcs	r1, r1
10040e26:	4264      	negs	r4, r4
10040e28:	4249      	negs	r1, r1
10040e2a:	430c      	orrs	r4, r1
10040e2c:	4641      	mov	r1, r8
10040e2e:	0c3f      	lsrs	r7, r7, #16
10040e30:	19d2      	adds	r2, r2, r7
10040e32:	1912      	adds	r2, r2, r4
10040e34:	0dcc      	lsrs	r4, r1, #23
10040e36:	9904      	ldr	r1, [sp, #16]
10040e38:	0270      	lsls	r0, r6, #9
10040e3a:	4308      	orrs	r0, r1
10040e3c:	1e41      	subs	r1, r0, #1
10040e3e:	4188      	sbcs	r0, r1
10040e40:	4641      	mov	r1, r8
10040e42:	444a      	add	r2, r9
10040e44:	0df6      	lsrs	r6, r6, #23
10040e46:	0252      	lsls	r2, r2, #9
10040e48:	4330      	orrs	r0, r6
10040e4a:	0249      	lsls	r1, r1, #9
10040e4c:	4314      	orrs	r4, r2
10040e4e:	4308      	orrs	r0, r1
10040e50:	01d2      	lsls	r2, r2, #7
10040e52:	d535      	bpl.n	10040ec0 <__aeabi_dmul+0x514>
10040e54:	2201      	movs	r2, #1
10040e56:	0843      	lsrs	r3, r0, #1
10040e58:	4002      	ands	r2, r0
10040e5a:	4313      	orrs	r3, r2
10040e5c:	07e0      	lsls	r0, r4, #31
10040e5e:	4318      	orrs	r0, r3
10040e60:	0864      	lsrs	r4, r4, #1
10040e62:	e634      	b.n	10040ace <__aeabi_dmul+0x122>
10040e64:	9b00      	ldr	r3, [sp, #0]
10040e66:	46a2      	mov	sl, r4
10040e68:	469b      	mov	fp, r3
10040e6a:	4681      	mov	r9, r0
10040e6c:	2480      	movs	r4, #128	@ 0x80
10040e6e:	4653      	mov	r3, sl
10040e70:	0324      	lsls	r4, r4, #12
10040e72:	431c      	orrs	r4, r3
10040e74:	0324      	lsls	r4, r4, #12
10040e76:	464a      	mov	r2, r9
10040e78:	4b2e      	ldr	r3, [pc, #184]	@ (10040f34 <__aeabi_dmul+0x588>)
10040e7a:	0b24      	lsrs	r4, r4, #12
10040e7c:	e5ec      	b.n	10040a58 <__aeabi_dmul+0xac>
10040e7e:	f000 fc97 	bl	100417b0 <__clzsi2>
10040e82:	2315      	movs	r3, #21
10040e84:	469c      	mov	ip, r3
10040e86:	4484      	add	ip, r0
10040e88:	0002      	movs	r2, r0
10040e8a:	4663      	mov	r3, ip
10040e8c:	3220      	adds	r2, #32
10040e8e:	2b1c      	cmp	r3, #28
10040e90:	dc00      	bgt.n	10040e94 <__aeabi_dmul+0x4e8>
10040e92:	e684      	b.n	10040b9e <__aeabi_dmul+0x1f2>
10040e94:	2300      	movs	r3, #0
10040e96:	4699      	mov	r9, r3
10040e98:	0023      	movs	r3, r4
10040e9a:	3808      	subs	r0, #8
10040e9c:	4083      	lsls	r3, r0
10040e9e:	469a      	mov	sl, r3
10040ea0:	e68e      	b.n	10040bc0 <__aeabi_dmul+0x214>
10040ea2:	f000 fc85 	bl	100417b0 <__clzsi2>
10040ea6:	0002      	movs	r2, r0
10040ea8:	0003      	movs	r3, r0
10040eaa:	3215      	adds	r2, #21
10040eac:	3320      	adds	r3, #32
10040eae:	2a1c      	cmp	r2, #28
10040eb0:	dc00      	bgt.n	10040eb4 <__aeabi_dmul+0x508>
10040eb2:	e64e      	b.n	10040b52 <__aeabi_dmul+0x1a6>
10040eb4:	0002      	movs	r2, r0
10040eb6:	0034      	movs	r4, r6
10040eb8:	3a08      	subs	r2, #8
10040eba:	2000      	movs	r0, #0
10040ebc:	4094      	lsls	r4, r2
10040ebe:	e652      	b.n	10040b66 <__aeabi_dmul+0x1ba>
10040ec0:	9301      	str	r3, [sp, #4]
10040ec2:	e604      	b.n	10040ace <__aeabi_dmul+0x122>
10040ec4:	4b1c      	ldr	r3, [pc, #112]	@ (10040f38 <__aeabi_dmul+0x58c>)
10040ec6:	0021      	movs	r1, r4
10040ec8:	469c      	mov	ip, r3
10040eca:	0003      	movs	r3, r0
10040ecc:	9d01      	ldr	r5, [sp, #4]
10040ece:	40d3      	lsrs	r3, r2
10040ed0:	4465      	add	r5, ip
10040ed2:	40a9      	lsls	r1, r5
10040ed4:	4319      	orrs	r1, r3
10040ed6:	0003      	movs	r3, r0
10040ed8:	40ab      	lsls	r3, r5
10040eda:	1e58      	subs	r0, r3, #1
10040edc:	4183      	sbcs	r3, r0
10040ede:	4319      	orrs	r1, r3
10040ee0:	0008      	movs	r0, r1
10040ee2:	40d4      	lsrs	r4, r2
10040ee4:	074b      	lsls	r3, r1, #29
10040ee6:	d009      	beq.n	10040efc <__aeabi_dmul+0x550>
10040ee8:	230f      	movs	r3, #15
10040eea:	400b      	ands	r3, r1
10040eec:	2b04      	cmp	r3, #4
10040eee:	d005      	beq.n	10040efc <__aeabi_dmul+0x550>
10040ef0:	1d0b      	adds	r3, r1, #4
10040ef2:	428b      	cmp	r3, r1
10040ef4:	4180      	sbcs	r0, r0
10040ef6:	4240      	negs	r0, r0
10040ef8:	1824      	adds	r4, r4, r0
10040efa:	0018      	movs	r0, r3
10040efc:	0223      	lsls	r3, r4, #8
10040efe:	d400      	bmi.n	10040f02 <__aeabi_dmul+0x556>
10040f00:	e6d6      	b.n	10040cb0 <__aeabi_dmul+0x304>
10040f02:	2301      	movs	r3, #1
10040f04:	2400      	movs	r4, #0
10040f06:	2200      	movs	r2, #0
10040f08:	e5a6      	b.n	10040a58 <__aeabi_dmul+0xac>
10040f0a:	290f      	cmp	r1, #15
10040f0c:	d1aa      	bne.n	10040e64 <__aeabi_dmul+0x4b8>
10040f0e:	2380      	movs	r3, #128	@ 0x80
10040f10:	4652      	mov	r2, sl
10040f12:	031b      	lsls	r3, r3, #12
10040f14:	421a      	tst	r2, r3
10040f16:	d0a9      	beq.n	10040e6c <__aeabi_dmul+0x4c0>
10040f18:	421c      	tst	r4, r3
10040f1a:	d1a7      	bne.n	10040e6c <__aeabi_dmul+0x4c0>
10040f1c:	431c      	orrs	r4, r3
10040f1e:	9b00      	ldr	r3, [sp, #0]
10040f20:	0002      	movs	r2, r0
10040f22:	469b      	mov	fp, r3
10040f24:	4b03      	ldr	r3, [pc, #12]	@ (10040f34 <__aeabi_dmul+0x588>)
10040f26:	e597      	b.n	10040a58 <__aeabi_dmul+0xac>
10040f28:	2400      	movs	r4, #0
10040f2a:	e6c1      	b.n	10040cb0 <__aeabi_dmul+0x304>
10040f2c:	2400      	movs	r4, #0
10040f2e:	4b01      	ldr	r3, [pc, #4]	@ (10040f34 <__aeabi_dmul+0x588>)
10040f30:	0022      	movs	r2, r4
10040f32:	e591      	b.n	10040a58 <__aeabi_dmul+0xac>
10040f34:	000007ff 	.word	0x000007ff
10040f38:	0000041e 	.word	0x0000041e

10040f3c <__aeabi_dsub>:
10040f3c:	b5f0      	push	{r4, r5, r6, r7, lr}
10040f3e:	464e      	mov	r6, r9
10040f40:	4645      	mov	r5, r8
10040f42:	46de      	mov	lr, fp
10040f44:	4657      	mov	r7, sl
10040f46:	b5e0      	push	{r5, r6, r7, lr}
10040f48:	b085      	sub	sp, #20
10040f4a:	9000      	str	r0, [sp, #0]
10040f4c:	9101      	str	r1, [sp, #4]
10040f4e:	030c      	lsls	r4, r1, #12
10040f50:	004f      	lsls	r7, r1, #1
10040f52:	0fce      	lsrs	r6, r1, #31
10040f54:	0a61      	lsrs	r1, r4, #9
10040f56:	9c00      	ldr	r4, [sp, #0]
10040f58:	46b0      	mov	r8, r6
10040f5a:	0f64      	lsrs	r4, r4, #29
10040f5c:	430c      	orrs	r4, r1
10040f5e:	9900      	ldr	r1, [sp, #0]
10040f60:	0d7f      	lsrs	r7, r7, #21
10040f62:	00c8      	lsls	r0, r1, #3
10040f64:	0011      	movs	r1, r2
10040f66:	001a      	movs	r2, r3
10040f68:	031b      	lsls	r3, r3, #12
10040f6a:	469c      	mov	ip, r3
10040f6c:	9100      	str	r1, [sp, #0]
10040f6e:	9201      	str	r2, [sp, #4]
10040f70:	0051      	lsls	r1, r2, #1
10040f72:	0d4b      	lsrs	r3, r1, #21
10040f74:	4699      	mov	r9, r3
10040f76:	9b01      	ldr	r3, [sp, #4]
10040f78:	9d00      	ldr	r5, [sp, #0]
10040f7a:	0fd9      	lsrs	r1, r3, #31
10040f7c:	4663      	mov	r3, ip
10040f7e:	0f6a      	lsrs	r2, r5, #29
10040f80:	0a5b      	lsrs	r3, r3, #9
10040f82:	4313      	orrs	r3, r2
10040f84:	00ea      	lsls	r2, r5, #3
10040f86:	4694      	mov	ip, r2
10040f88:	4693      	mov	fp, r2
10040f8a:	4ac1      	ldr	r2, [pc, #772]	@ (10041290 <__aeabi_dsub+0x354>)
10040f8c:	9003      	str	r0, [sp, #12]
10040f8e:	9302      	str	r3, [sp, #8]
10040f90:	4591      	cmp	r9, r2
10040f92:	d100      	bne.n	10040f96 <__aeabi_dsub+0x5a>
10040f94:	e0cd      	b.n	10041132 <__aeabi_dsub+0x1f6>
10040f96:	2501      	movs	r5, #1
10040f98:	4069      	eors	r1, r5
10040f9a:	464d      	mov	r5, r9
10040f9c:	1b7d      	subs	r5, r7, r5
10040f9e:	46aa      	mov	sl, r5
10040fa0:	428e      	cmp	r6, r1
10040fa2:	d100      	bne.n	10040fa6 <__aeabi_dsub+0x6a>
10040fa4:	e080      	b.n	100410a8 <__aeabi_dsub+0x16c>
10040fa6:	2d00      	cmp	r5, #0
10040fa8:	dc00      	bgt.n	10040fac <__aeabi_dsub+0x70>
10040faa:	e335      	b.n	10041618 <__aeabi_dsub+0x6dc>
10040fac:	4649      	mov	r1, r9
10040fae:	2900      	cmp	r1, #0
10040fb0:	d100      	bne.n	10040fb4 <__aeabi_dsub+0x78>
10040fb2:	e0df      	b.n	10041174 <__aeabi_dsub+0x238>
10040fb4:	4297      	cmp	r7, r2
10040fb6:	d100      	bne.n	10040fba <__aeabi_dsub+0x7e>
10040fb8:	e194      	b.n	100412e4 <__aeabi_dsub+0x3a8>
10040fba:	4652      	mov	r2, sl
10040fbc:	2501      	movs	r5, #1
10040fbe:	2a38      	cmp	r2, #56	@ 0x38
10040fc0:	dc19      	bgt.n	10040ff6 <__aeabi_dsub+0xba>
10040fc2:	2280      	movs	r2, #128	@ 0x80
10040fc4:	9b02      	ldr	r3, [sp, #8]
10040fc6:	0412      	lsls	r2, r2, #16
10040fc8:	4313      	orrs	r3, r2
10040fca:	9302      	str	r3, [sp, #8]
10040fcc:	4652      	mov	r2, sl
10040fce:	2a1f      	cmp	r2, #31
10040fd0:	dd00      	ble.n	10040fd4 <__aeabi_dsub+0x98>
10040fd2:	e1e3      	b.n	1004139c <__aeabi_dsub+0x460>
10040fd4:	4653      	mov	r3, sl
10040fd6:	2220      	movs	r2, #32
10040fd8:	4661      	mov	r1, ip
10040fda:	9d02      	ldr	r5, [sp, #8]
10040fdc:	1ad2      	subs	r2, r2, r3
10040fde:	4095      	lsls	r5, r2
10040fe0:	40d9      	lsrs	r1, r3
10040fe2:	430d      	orrs	r5, r1
10040fe4:	4661      	mov	r1, ip
10040fe6:	4091      	lsls	r1, r2
10040fe8:	000a      	movs	r2, r1
10040fea:	1e51      	subs	r1, r2, #1
10040fec:	418a      	sbcs	r2, r1
10040fee:	4315      	orrs	r5, r2
10040ff0:	9a02      	ldr	r2, [sp, #8]
10040ff2:	40da      	lsrs	r2, r3
10040ff4:	1aa4      	subs	r4, r4, r2
10040ff6:	1b45      	subs	r5, r0, r5
10040ff8:	42a8      	cmp	r0, r5
10040ffa:	4180      	sbcs	r0, r0
10040ffc:	4240      	negs	r0, r0
10040ffe:	1a24      	subs	r4, r4, r0
10041000:	0223      	lsls	r3, r4, #8
10041002:	d400      	bmi.n	10041006 <__aeabi_dsub+0xca>
10041004:	e13d      	b.n	10041282 <__aeabi_dsub+0x346>
10041006:	0264      	lsls	r4, r4, #9
10041008:	0a64      	lsrs	r4, r4, #9
1004100a:	2c00      	cmp	r4, #0
1004100c:	d100      	bne.n	10041010 <__aeabi_dsub+0xd4>
1004100e:	e147      	b.n	100412a0 <__aeabi_dsub+0x364>
10041010:	0020      	movs	r0, r4
10041012:	f000 fbcd 	bl	100417b0 <__clzsi2>
10041016:	0003      	movs	r3, r0
10041018:	3b08      	subs	r3, #8
1004101a:	2120      	movs	r1, #32
1004101c:	0028      	movs	r0, r5
1004101e:	1aca      	subs	r2, r1, r3
10041020:	40d0      	lsrs	r0, r2
10041022:	409c      	lsls	r4, r3
10041024:	0002      	movs	r2, r0
10041026:	409d      	lsls	r5, r3
10041028:	4322      	orrs	r2, r4
1004102a:	429f      	cmp	r7, r3
1004102c:	dd00      	ble.n	10041030 <__aeabi_dsub+0xf4>
1004102e:	e177      	b.n	10041320 <__aeabi_dsub+0x3e4>
10041030:	1bd8      	subs	r0, r3, r7
10041032:	3001      	adds	r0, #1
10041034:	1a09      	subs	r1, r1, r0
10041036:	002c      	movs	r4, r5
10041038:	408d      	lsls	r5, r1
1004103a:	40c4      	lsrs	r4, r0
1004103c:	1e6b      	subs	r3, r5, #1
1004103e:	419d      	sbcs	r5, r3
10041040:	0013      	movs	r3, r2
10041042:	40c2      	lsrs	r2, r0
10041044:	408b      	lsls	r3, r1
10041046:	4325      	orrs	r5, r4
10041048:	2700      	movs	r7, #0
1004104a:	0014      	movs	r4, r2
1004104c:	431d      	orrs	r5, r3
1004104e:	076b      	lsls	r3, r5, #29
10041050:	d009      	beq.n	10041066 <__aeabi_dsub+0x12a>
10041052:	230f      	movs	r3, #15
10041054:	402b      	ands	r3, r5
10041056:	2b04      	cmp	r3, #4
10041058:	d005      	beq.n	10041066 <__aeabi_dsub+0x12a>
1004105a:	1d2b      	adds	r3, r5, #4
1004105c:	42ab      	cmp	r3, r5
1004105e:	41ad      	sbcs	r5, r5
10041060:	426d      	negs	r5, r5
10041062:	1964      	adds	r4, r4, r5
10041064:	001d      	movs	r5, r3
10041066:	0223      	lsls	r3, r4, #8
10041068:	d400      	bmi.n	1004106c <__aeabi_dsub+0x130>
1004106a:	e140      	b.n	100412ee <__aeabi_dsub+0x3b2>
1004106c:	4a88      	ldr	r2, [pc, #544]	@ (10041290 <__aeabi_dsub+0x354>)
1004106e:	3701      	adds	r7, #1
10041070:	4297      	cmp	r7, r2
10041072:	d100      	bne.n	10041076 <__aeabi_dsub+0x13a>
10041074:	e101      	b.n	1004127a <__aeabi_dsub+0x33e>
10041076:	2601      	movs	r6, #1
10041078:	4643      	mov	r3, r8
1004107a:	4986      	ldr	r1, [pc, #536]	@ (10041294 <__aeabi_dsub+0x358>)
1004107c:	08ed      	lsrs	r5, r5, #3
1004107e:	4021      	ands	r1, r4
10041080:	074a      	lsls	r2, r1, #29
10041082:	432a      	orrs	r2, r5
10041084:	057c      	lsls	r4, r7, #21
10041086:	024d      	lsls	r5, r1, #9
10041088:	0b2d      	lsrs	r5, r5, #12
1004108a:	0d64      	lsrs	r4, r4, #21
1004108c:	401e      	ands	r6, r3
1004108e:	0524      	lsls	r4, r4, #20
10041090:	432c      	orrs	r4, r5
10041092:	07f6      	lsls	r6, r6, #31
10041094:	4334      	orrs	r4, r6
10041096:	0010      	movs	r0, r2
10041098:	0021      	movs	r1, r4
1004109a:	b005      	add	sp, #20
1004109c:	bcf0      	pop	{r4, r5, r6, r7}
1004109e:	46bb      	mov	fp, r7
100410a0:	46b2      	mov	sl, r6
100410a2:	46a9      	mov	r9, r5
100410a4:	46a0      	mov	r8, r4
100410a6:	bdf0      	pop	{r4, r5, r6, r7, pc}
100410a8:	2d00      	cmp	r5, #0
100410aa:	dc00      	bgt.n	100410ae <__aeabi_dsub+0x172>
100410ac:	e2d0      	b.n	10041650 <__aeabi_dsub+0x714>
100410ae:	4649      	mov	r1, r9
100410b0:	2900      	cmp	r1, #0
100410b2:	d000      	beq.n	100410b6 <__aeabi_dsub+0x17a>
100410b4:	e0d4      	b.n	10041260 <__aeabi_dsub+0x324>
100410b6:	4661      	mov	r1, ip
100410b8:	9b02      	ldr	r3, [sp, #8]
100410ba:	4319      	orrs	r1, r3
100410bc:	d100      	bne.n	100410c0 <__aeabi_dsub+0x184>
100410be:	e12b      	b.n	10041318 <__aeabi_dsub+0x3dc>
100410c0:	1e69      	subs	r1, r5, #1
100410c2:	2d01      	cmp	r5, #1
100410c4:	d100      	bne.n	100410c8 <__aeabi_dsub+0x18c>
100410c6:	e1d9      	b.n	1004147c <__aeabi_dsub+0x540>
100410c8:	4295      	cmp	r5, r2
100410ca:	d100      	bne.n	100410ce <__aeabi_dsub+0x192>
100410cc:	e10a      	b.n	100412e4 <__aeabi_dsub+0x3a8>
100410ce:	2501      	movs	r5, #1
100410d0:	2938      	cmp	r1, #56	@ 0x38
100410d2:	dc17      	bgt.n	10041104 <__aeabi_dsub+0x1c8>
100410d4:	468a      	mov	sl, r1
100410d6:	4653      	mov	r3, sl
100410d8:	2b1f      	cmp	r3, #31
100410da:	dd00      	ble.n	100410de <__aeabi_dsub+0x1a2>
100410dc:	e1e7      	b.n	100414ae <__aeabi_dsub+0x572>
100410de:	2220      	movs	r2, #32
100410e0:	1ad2      	subs	r2, r2, r3
100410e2:	9b02      	ldr	r3, [sp, #8]
100410e4:	4661      	mov	r1, ip
100410e6:	4093      	lsls	r3, r2
100410e8:	001d      	movs	r5, r3
100410ea:	4653      	mov	r3, sl
100410ec:	40d9      	lsrs	r1, r3
100410ee:	4663      	mov	r3, ip
100410f0:	4093      	lsls	r3, r2
100410f2:	001a      	movs	r2, r3
100410f4:	430d      	orrs	r5, r1
100410f6:	1e51      	subs	r1, r2, #1
100410f8:	418a      	sbcs	r2, r1
100410fa:	4653      	mov	r3, sl
100410fc:	4315      	orrs	r5, r2
100410fe:	9a02      	ldr	r2, [sp, #8]
10041100:	40da      	lsrs	r2, r3
10041102:	18a4      	adds	r4, r4, r2
10041104:	182d      	adds	r5, r5, r0
10041106:	4285      	cmp	r5, r0
10041108:	4180      	sbcs	r0, r0
1004110a:	4240      	negs	r0, r0
1004110c:	1824      	adds	r4, r4, r0
1004110e:	0223      	lsls	r3, r4, #8
10041110:	d400      	bmi.n	10041114 <__aeabi_dsub+0x1d8>
10041112:	e0b6      	b.n	10041282 <__aeabi_dsub+0x346>
10041114:	4b5e      	ldr	r3, [pc, #376]	@ (10041290 <__aeabi_dsub+0x354>)
10041116:	3701      	adds	r7, #1
10041118:	429f      	cmp	r7, r3
1004111a:	d100      	bne.n	1004111e <__aeabi_dsub+0x1e2>
1004111c:	e0ad      	b.n	1004127a <__aeabi_dsub+0x33e>
1004111e:	2101      	movs	r1, #1
10041120:	4b5c      	ldr	r3, [pc, #368]	@ (10041294 <__aeabi_dsub+0x358>)
10041122:	086a      	lsrs	r2, r5, #1
10041124:	401c      	ands	r4, r3
10041126:	4029      	ands	r1, r5
10041128:	430a      	orrs	r2, r1
1004112a:	07e5      	lsls	r5, r4, #31
1004112c:	4315      	orrs	r5, r2
1004112e:	0864      	lsrs	r4, r4, #1
10041130:	e78d      	b.n	1004104e <__aeabi_dsub+0x112>
10041132:	4a59      	ldr	r2, [pc, #356]	@ (10041298 <__aeabi_dsub+0x35c>)
10041134:	9b02      	ldr	r3, [sp, #8]
10041136:	4692      	mov	sl, r2
10041138:	4662      	mov	r2, ip
1004113a:	44ba      	add	sl, r7
1004113c:	431a      	orrs	r2, r3
1004113e:	d02c      	beq.n	1004119a <__aeabi_dsub+0x25e>
10041140:	428e      	cmp	r6, r1
10041142:	d02e      	beq.n	100411a2 <__aeabi_dsub+0x266>
10041144:	4652      	mov	r2, sl
10041146:	2a00      	cmp	r2, #0
10041148:	d060      	beq.n	1004120c <__aeabi_dsub+0x2d0>
1004114a:	2f00      	cmp	r7, #0
1004114c:	d100      	bne.n	10041150 <__aeabi_dsub+0x214>
1004114e:	e0db      	b.n	10041308 <__aeabi_dsub+0x3cc>
10041150:	4663      	mov	r3, ip
10041152:	000e      	movs	r6, r1
10041154:	9c02      	ldr	r4, [sp, #8]
10041156:	08d8      	lsrs	r0, r3, #3
10041158:	0762      	lsls	r2, r4, #29
1004115a:	4302      	orrs	r2, r0
1004115c:	08e4      	lsrs	r4, r4, #3
1004115e:	0013      	movs	r3, r2
10041160:	4323      	orrs	r3, r4
10041162:	d100      	bne.n	10041166 <__aeabi_dsub+0x22a>
10041164:	e254      	b.n	10041610 <__aeabi_dsub+0x6d4>
10041166:	2580      	movs	r5, #128	@ 0x80
10041168:	032d      	lsls	r5, r5, #12
1004116a:	4325      	orrs	r5, r4
1004116c:	032d      	lsls	r5, r5, #12
1004116e:	4c48      	ldr	r4, [pc, #288]	@ (10041290 <__aeabi_dsub+0x354>)
10041170:	0b2d      	lsrs	r5, r5, #12
10041172:	e78c      	b.n	1004108e <__aeabi_dsub+0x152>
10041174:	4661      	mov	r1, ip
10041176:	9b02      	ldr	r3, [sp, #8]
10041178:	4319      	orrs	r1, r3
1004117a:	d100      	bne.n	1004117e <__aeabi_dsub+0x242>
1004117c:	e0cc      	b.n	10041318 <__aeabi_dsub+0x3dc>
1004117e:	0029      	movs	r1, r5
10041180:	3901      	subs	r1, #1
10041182:	2d01      	cmp	r5, #1
10041184:	d100      	bne.n	10041188 <__aeabi_dsub+0x24c>
10041186:	e188      	b.n	1004149a <__aeabi_dsub+0x55e>
10041188:	4295      	cmp	r5, r2
1004118a:	d100      	bne.n	1004118e <__aeabi_dsub+0x252>
1004118c:	e0aa      	b.n	100412e4 <__aeabi_dsub+0x3a8>
1004118e:	2501      	movs	r5, #1
10041190:	2938      	cmp	r1, #56	@ 0x38
10041192:	dd00      	ble.n	10041196 <__aeabi_dsub+0x25a>
10041194:	e72f      	b.n	10040ff6 <__aeabi_dsub+0xba>
10041196:	468a      	mov	sl, r1
10041198:	e718      	b.n	10040fcc <__aeabi_dsub+0x90>
1004119a:	2201      	movs	r2, #1
1004119c:	4051      	eors	r1, r2
1004119e:	428e      	cmp	r6, r1
100411a0:	d1d0      	bne.n	10041144 <__aeabi_dsub+0x208>
100411a2:	4653      	mov	r3, sl
100411a4:	2b00      	cmp	r3, #0
100411a6:	d100      	bne.n	100411aa <__aeabi_dsub+0x26e>
100411a8:	e0be      	b.n	10041328 <__aeabi_dsub+0x3ec>
100411aa:	2f00      	cmp	r7, #0
100411ac:	d000      	beq.n	100411b0 <__aeabi_dsub+0x274>
100411ae:	e138      	b.n	10041422 <__aeabi_dsub+0x4e6>
100411b0:	46ca      	mov	sl, r9
100411b2:	0022      	movs	r2, r4
100411b4:	4302      	orrs	r2, r0
100411b6:	d100      	bne.n	100411ba <__aeabi_dsub+0x27e>
100411b8:	e1e2      	b.n	10041580 <__aeabi_dsub+0x644>
100411ba:	4653      	mov	r3, sl
100411bc:	1e59      	subs	r1, r3, #1
100411be:	2b01      	cmp	r3, #1
100411c0:	d100      	bne.n	100411c4 <__aeabi_dsub+0x288>
100411c2:	e20d      	b.n	100415e0 <__aeabi_dsub+0x6a4>
100411c4:	4a32      	ldr	r2, [pc, #200]	@ (10041290 <__aeabi_dsub+0x354>)
100411c6:	4592      	cmp	sl, r2
100411c8:	d100      	bne.n	100411cc <__aeabi_dsub+0x290>
100411ca:	e1d2      	b.n	10041572 <__aeabi_dsub+0x636>
100411cc:	2701      	movs	r7, #1
100411ce:	2938      	cmp	r1, #56	@ 0x38
100411d0:	dc13      	bgt.n	100411fa <__aeabi_dsub+0x2be>
100411d2:	291f      	cmp	r1, #31
100411d4:	dd00      	ble.n	100411d8 <__aeabi_dsub+0x29c>
100411d6:	e1ee      	b.n	100415b6 <__aeabi_dsub+0x67a>
100411d8:	2220      	movs	r2, #32
100411da:	9b02      	ldr	r3, [sp, #8]
100411dc:	1a52      	subs	r2, r2, r1
100411de:	0025      	movs	r5, r4
100411e0:	0007      	movs	r7, r0
100411e2:	469a      	mov	sl, r3
100411e4:	40cc      	lsrs	r4, r1
100411e6:	4090      	lsls	r0, r2
100411e8:	4095      	lsls	r5, r2
100411ea:	40cf      	lsrs	r7, r1
100411ec:	44a2      	add	sl, r4
100411ee:	1e42      	subs	r2, r0, #1
100411f0:	4190      	sbcs	r0, r2
100411f2:	4653      	mov	r3, sl
100411f4:	432f      	orrs	r7, r5
100411f6:	4307      	orrs	r7, r0
100411f8:	9302      	str	r3, [sp, #8]
100411fa:	003d      	movs	r5, r7
100411fc:	4465      	add	r5, ip
100411fe:	4565      	cmp	r5, ip
10041200:	4192      	sbcs	r2, r2
10041202:	9b02      	ldr	r3, [sp, #8]
10041204:	4252      	negs	r2, r2
10041206:	464f      	mov	r7, r9
10041208:	18d4      	adds	r4, r2, r3
1004120a:	e780      	b.n	1004110e <__aeabi_dsub+0x1d2>
1004120c:	4a23      	ldr	r2, [pc, #140]	@ (1004129c <__aeabi_dsub+0x360>)
1004120e:	1c7d      	adds	r5, r7, #1
10041210:	4215      	tst	r5, r2
10041212:	d000      	beq.n	10041216 <__aeabi_dsub+0x2da>
10041214:	e0aa      	b.n	1004136c <__aeabi_dsub+0x430>
10041216:	4662      	mov	r2, ip
10041218:	0025      	movs	r5, r4
1004121a:	9b02      	ldr	r3, [sp, #8]
1004121c:	4305      	orrs	r5, r0
1004121e:	431a      	orrs	r2, r3
10041220:	2f00      	cmp	r7, #0
10041222:	d000      	beq.n	10041226 <__aeabi_dsub+0x2ea>
10041224:	e0f5      	b.n	10041412 <__aeabi_dsub+0x4d6>
10041226:	2d00      	cmp	r5, #0
10041228:	d100      	bne.n	1004122c <__aeabi_dsub+0x2f0>
1004122a:	e16b      	b.n	10041504 <__aeabi_dsub+0x5c8>
1004122c:	2a00      	cmp	r2, #0
1004122e:	d100      	bne.n	10041232 <__aeabi_dsub+0x2f6>
10041230:	e152      	b.n	100414d8 <__aeabi_dsub+0x59c>
10041232:	4663      	mov	r3, ip
10041234:	1ac5      	subs	r5, r0, r3
10041236:	9b02      	ldr	r3, [sp, #8]
10041238:	1ae2      	subs	r2, r4, r3
1004123a:	42a8      	cmp	r0, r5
1004123c:	419b      	sbcs	r3, r3
1004123e:	425b      	negs	r3, r3
10041240:	1ad3      	subs	r3, r2, r3
10041242:	021a      	lsls	r2, r3, #8
10041244:	d400      	bmi.n	10041248 <__aeabi_dsub+0x30c>
10041246:	e1d5      	b.n	100415f4 <__aeabi_dsub+0x6b8>
10041248:	4663      	mov	r3, ip
1004124a:	1a1d      	subs	r5, r3, r0
1004124c:	45ac      	cmp	ip, r5
1004124e:	4192      	sbcs	r2, r2
10041250:	2601      	movs	r6, #1
10041252:	9b02      	ldr	r3, [sp, #8]
10041254:	4252      	negs	r2, r2
10041256:	1b1c      	subs	r4, r3, r4
10041258:	4688      	mov	r8, r1
1004125a:	1aa4      	subs	r4, r4, r2
1004125c:	400e      	ands	r6, r1
1004125e:	e6f6      	b.n	1004104e <__aeabi_dsub+0x112>
10041260:	4297      	cmp	r7, r2
10041262:	d03f      	beq.n	100412e4 <__aeabi_dsub+0x3a8>
10041264:	4652      	mov	r2, sl
10041266:	2501      	movs	r5, #1
10041268:	2a38      	cmp	r2, #56	@ 0x38
1004126a:	dd00      	ble.n	1004126e <__aeabi_dsub+0x332>
1004126c:	e74a      	b.n	10041104 <__aeabi_dsub+0x1c8>
1004126e:	2280      	movs	r2, #128	@ 0x80
10041270:	9b02      	ldr	r3, [sp, #8]
10041272:	0412      	lsls	r2, r2, #16
10041274:	4313      	orrs	r3, r2
10041276:	9302      	str	r3, [sp, #8]
10041278:	e72d      	b.n	100410d6 <__aeabi_dsub+0x19a>
1004127a:	003c      	movs	r4, r7
1004127c:	2500      	movs	r5, #0
1004127e:	2200      	movs	r2, #0
10041280:	e705      	b.n	1004108e <__aeabi_dsub+0x152>
10041282:	2307      	movs	r3, #7
10041284:	402b      	ands	r3, r5
10041286:	2b00      	cmp	r3, #0
10041288:	d000      	beq.n	1004128c <__aeabi_dsub+0x350>
1004128a:	e6e2      	b.n	10041052 <__aeabi_dsub+0x116>
1004128c:	e06b      	b.n	10041366 <__aeabi_dsub+0x42a>
1004128e:	46c0      	nop			@ (mov r8, r8)
10041290:	000007ff 	.word	0x000007ff
10041294:	ff7fffff 	.word	0xff7fffff
10041298:	fffff801 	.word	0xfffff801
1004129c:	000007fe 	.word	0x000007fe
100412a0:	0028      	movs	r0, r5
100412a2:	f000 fa85 	bl	100417b0 <__clzsi2>
100412a6:	0003      	movs	r3, r0
100412a8:	3318      	adds	r3, #24
100412aa:	2b1f      	cmp	r3, #31
100412ac:	dc00      	bgt.n	100412b0 <__aeabi_dsub+0x374>
100412ae:	e6b4      	b.n	1004101a <__aeabi_dsub+0xde>
100412b0:	002a      	movs	r2, r5
100412b2:	3808      	subs	r0, #8
100412b4:	4082      	lsls	r2, r0
100412b6:	429f      	cmp	r7, r3
100412b8:	dd00      	ble.n	100412bc <__aeabi_dsub+0x380>
100412ba:	e0b9      	b.n	10041430 <__aeabi_dsub+0x4f4>
100412bc:	1bdb      	subs	r3, r3, r7
100412be:	1c58      	adds	r0, r3, #1
100412c0:	281f      	cmp	r0, #31
100412c2:	dc00      	bgt.n	100412c6 <__aeabi_dsub+0x38a>
100412c4:	e1a0      	b.n	10041608 <__aeabi_dsub+0x6cc>
100412c6:	0015      	movs	r5, r2
100412c8:	3b1f      	subs	r3, #31
100412ca:	40dd      	lsrs	r5, r3
100412cc:	2820      	cmp	r0, #32
100412ce:	d005      	beq.n	100412dc <__aeabi_dsub+0x3a0>
100412d0:	2340      	movs	r3, #64	@ 0x40
100412d2:	1a1b      	subs	r3, r3, r0
100412d4:	409a      	lsls	r2, r3
100412d6:	1e53      	subs	r3, r2, #1
100412d8:	419a      	sbcs	r2, r3
100412da:	4315      	orrs	r5, r2
100412dc:	2307      	movs	r3, #7
100412de:	2700      	movs	r7, #0
100412e0:	402b      	ands	r3, r5
100412e2:	e7d0      	b.n	10041286 <__aeabi_dsub+0x34a>
100412e4:	08c0      	lsrs	r0, r0, #3
100412e6:	0762      	lsls	r2, r4, #29
100412e8:	4302      	orrs	r2, r0
100412ea:	08e4      	lsrs	r4, r4, #3
100412ec:	e737      	b.n	1004115e <__aeabi_dsub+0x222>
100412ee:	08ea      	lsrs	r2, r5, #3
100412f0:	0763      	lsls	r3, r4, #29
100412f2:	431a      	orrs	r2, r3
100412f4:	4bd3      	ldr	r3, [pc, #844]	@ (10041644 <__aeabi_dsub+0x708>)
100412f6:	08e4      	lsrs	r4, r4, #3
100412f8:	429f      	cmp	r7, r3
100412fa:	d100      	bne.n	100412fe <__aeabi_dsub+0x3c2>
100412fc:	e72f      	b.n	1004115e <__aeabi_dsub+0x222>
100412fe:	0324      	lsls	r4, r4, #12
10041300:	0b25      	lsrs	r5, r4, #12
10041302:	057c      	lsls	r4, r7, #21
10041304:	0d64      	lsrs	r4, r4, #21
10041306:	e6c2      	b.n	1004108e <__aeabi_dsub+0x152>
10041308:	46ca      	mov	sl, r9
1004130a:	0022      	movs	r2, r4
1004130c:	4302      	orrs	r2, r0
1004130e:	d158      	bne.n	100413c2 <__aeabi_dsub+0x486>
10041310:	4663      	mov	r3, ip
10041312:	000e      	movs	r6, r1
10041314:	9c02      	ldr	r4, [sp, #8]
10041316:	9303      	str	r3, [sp, #12]
10041318:	9b03      	ldr	r3, [sp, #12]
1004131a:	4657      	mov	r7, sl
1004131c:	08da      	lsrs	r2, r3, #3
1004131e:	e7e7      	b.n	100412f0 <__aeabi_dsub+0x3b4>
10041320:	4cc9      	ldr	r4, [pc, #804]	@ (10041648 <__aeabi_dsub+0x70c>)
10041322:	1aff      	subs	r7, r7, r3
10041324:	4014      	ands	r4, r2
10041326:	e692      	b.n	1004104e <__aeabi_dsub+0x112>
10041328:	4dc8      	ldr	r5, [pc, #800]	@ (1004164c <__aeabi_dsub+0x710>)
1004132a:	1c7a      	adds	r2, r7, #1
1004132c:	422a      	tst	r2, r5
1004132e:	d000      	beq.n	10041332 <__aeabi_dsub+0x3f6>
10041330:	e084      	b.n	1004143c <__aeabi_dsub+0x500>
10041332:	0022      	movs	r2, r4
10041334:	4302      	orrs	r2, r0
10041336:	2f00      	cmp	r7, #0
10041338:	d000      	beq.n	1004133c <__aeabi_dsub+0x400>
1004133a:	e0ef      	b.n	1004151c <__aeabi_dsub+0x5e0>
1004133c:	2a00      	cmp	r2, #0
1004133e:	d100      	bne.n	10041342 <__aeabi_dsub+0x406>
10041340:	e0e5      	b.n	1004150e <__aeabi_dsub+0x5d2>
10041342:	4662      	mov	r2, ip
10041344:	9902      	ldr	r1, [sp, #8]
10041346:	430a      	orrs	r2, r1
10041348:	d100      	bne.n	1004134c <__aeabi_dsub+0x410>
1004134a:	e0c5      	b.n	100414d8 <__aeabi_dsub+0x59c>
1004134c:	4663      	mov	r3, ip
1004134e:	18c5      	adds	r5, r0, r3
10041350:	468c      	mov	ip, r1
10041352:	4285      	cmp	r5, r0
10041354:	4180      	sbcs	r0, r0
10041356:	4464      	add	r4, ip
10041358:	4240      	negs	r0, r0
1004135a:	1824      	adds	r4, r4, r0
1004135c:	0223      	lsls	r3, r4, #8
1004135e:	d502      	bpl.n	10041366 <__aeabi_dsub+0x42a>
10041360:	4bb9      	ldr	r3, [pc, #740]	@ (10041648 <__aeabi_dsub+0x70c>)
10041362:	3701      	adds	r7, #1
10041364:	401c      	ands	r4, r3
10041366:	46ba      	mov	sl, r7
10041368:	9503      	str	r5, [sp, #12]
1004136a:	e7d5      	b.n	10041318 <__aeabi_dsub+0x3dc>
1004136c:	4662      	mov	r2, ip
1004136e:	1a85      	subs	r5, r0, r2
10041370:	42a8      	cmp	r0, r5
10041372:	4192      	sbcs	r2, r2
10041374:	4252      	negs	r2, r2
10041376:	4691      	mov	r9, r2
10041378:	9b02      	ldr	r3, [sp, #8]
1004137a:	1ae3      	subs	r3, r4, r3
1004137c:	001a      	movs	r2, r3
1004137e:	464b      	mov	r3, r9
10041380:	1ad2      	subs	r2, r2, r3
10041382:	0013      	movs	r3, r2
10041384:	4691      	mov	r9, r2
10041386:	021a      	lsls	r2, r3, #8
10041388:	d46c      	bmi.n	10041464 <__aeabi_dsub+0x528>
1004138a:	464a      	mov	r2, r9
1004138c:	464c      	mov	r4, r9
1004138e:	432a      	orrs	r2, r5
10041390:	d000      	beq.n	10041394 <__aeabi_dsub+0x458>
10041392:	e63a      	b.n	1004100a <__aeabi_dsub+0xce>
10041394:	2600      	movs	r6, #0
10041396:	2400      	movs	r4, #0
10041398:	2500      	movs	r5, #0
1004139a:	e678      	b.n	1004108e <__aeabi_dsub+0x152>
1004139c:	9902      	ldr	r1, [sp, #8]
1004139e:	4653      	mov	r3, sl
100413a0:	000d      	movs	r5, r1
100413a2:	3a20      	subs	r2, #32
100413a4:	40d5      	lsrs	r5, r2
100413a6:	2b20      	cmp	r3, #32
100413a8:	d006      	beq.n	100413b8 <__aeabi_dsub+0x47c>
100413aa:	2240      	movs	r2, #64	@ 0x40
100413ac:	1ad2      	subs	r2, r2, r3
100413ae:	000b      	movs	r3, r1
100413b0:	4093      	lsls	r3, r2
100413b2:	4662      	mov	r2, ip
100413b4:	431a      	orrs	r2, r3
100413b6:	4693      	mov	fp, r2
100413b8:	465b      	mov	r3, fp
100413ba:	1e5a      	subs	r2, r3, #1
100413bc:	4193      	sbcs	r3, r2
100413be:	431d      	orrs	r5, r3
100413c0:	e619      	b.n	10040ff6 <__aeabi_dsub+0xba>
100413c2:	4653      	mov	r3, sl
100413c4:	1e5a      	subs	r2, r3, #1
100413c6:	2b01      	cmp	r3, #1
100413c8:	d100      	bne.n	100413cc <__aeabi_dsub+0x490>
100413ca:	e0c6      	b.n	1004155a <__aeabi_dsub+0x61e>
100413cc:	4e9d      	ldr	r6, [pc, #628]	@ (10041644 <__aeabi_dsub+0x708>)
100413ce:	45b2      	cmp	sl, r6
100413d0:	d100      	bne.n	100413d4 <__aeabi_dsub+0x498>
100413d2:	e6bd      	b.n	10041150 <__aeabi_dsub+0x214>
100413d4:	4688      	mov	r8, r1
100413d6:	000e      	movs	r6, r1
100413d8:	2501      	movs	r5, #1
100413da:	2a38      	cmp	r2, #56	@ 0x38
100413dc:	dc10      	bgt.n	10041400 <__aeabi_dsub+0x4c4>
100413de:	2a1f      	cmp	r2, #31
100413e0:	dc7f      	bgt.n	100414e2 <__aeabi_dsub+0x5a6>
100413e2:	2120      	movs	r1, #32
100413e4:	0025      	movs	r5, r4
100413e6:	1a89      	subs	r1, r1, r2
100413e8:	0007      	movs	r7, r0
100413ea:	4088      	lsls	r0, r1
100413ec:	408d      	lsls	r5, r1
100413ee:	40d7      	lsrs	r7, r2
100413f0:	40d4      	lsrs	r4, r2
100413f2:	1e41      	subs	r1, r0, #1
100413f4:	4188      	sbcs	r0, r1
100413f6:	9b02      	ldr	r3, [sp, #8]
100413f8:	433d      	orrs	r5, r7
100413fa:	1b1b      	subs	r3, r3, r4
100413fc:	4305      	orrs	r5, r0
100413fe:	9302      	str	r3, [sp, #8]
10041400:	4662      	mov	r2, ip
10041402:	1b55      	subs	r5, r2, r5
10041404:	45ac      	cmp	ip, r5
10041406:	4192      	sbcs	r2, r2
10041408:	9b02      	ldr	r3, [sp, #8]
1004140a:	4252      	negs	r2, r2
1004140c:	464f      	mov	r7, r9
1004140e:	1a9c      	subs	r4, r3, r2
10041410:	e5f6      	b.n	10041000 <__aeabi_dsub+0xc4>
10041412:	2d00      	cmp	r5, #0
10041414:	d000      	beq.n	10041418 <__aeabi_dsub+0x4dc>
10041416:	e0b7      	b.n	10041588 <__aeabi_dsub+0x64c>
10041418:	2a00      	cmp	r2, #0
1004141a:	d100      	bne.n	1004141e <__aeabi_dsub+0x4e2>
1004141c:	e0f0      	b.n	10041600 <__aeabi_dsub+0x6c4>
1004141e:	2601      	movs	r6, #1
10041420:	400e      	ands	r6, r1
10041422:	4663      	mov	r3, ip
10041424:	9802      	ldr	r0, [sp, #8]
10041426:	08d9      	lsrs	r1, r3, #3
10041428:	0742      	lsls	r2, r0, #29
1004142a:	430a      	orrs	r2, r1
1004142c:	08c4      	lsrs	r4, r0, #3
1004142e:	e696      	b.n	1004115e <__aeabi_dsub+0x222>
10041430:	4c85      	ldr	r4, [pc, #532]	@ (10041648 <__aeabi_dsub+0x70c>)
10041432:	1aff      	subs	r7, r7, r3
10041434:	4014      	ands	r4, r2
10041436:	0762      	lsls	r2, r4, #29
10041438:	08e4      	lsrs	r4, r4, #3
1004143a:	e760      	b.n	100412fe <__aeabi_dsub+0x3c2>
1004143c:	4981      	ldr	r1, [pc, #516]	@ (10041644 <__aeabi_dsub+0x708>)
1004143e:	428a      	cmp	r2, r1
10041440:	d100      	bne.n	10041444 <__aeabi_dsub+0x508>
10041442:	e0c9      	b.n	100415d8 <__aeabi_dsub+0x69c>
10041444:	4663      	mov	r3, ip
10041446:	18c1      	adds	r1, r0, r3
10041448:	4281      	cmp	r1, r0
1004144a:	4180      	sbcs	r0, r0
1004144c:	9b02      	ldr	r3, [sp, #8]
1004144e:	4240      	negs	r0, r0
10041450:	18e3      	adds	r3, r4, r3
10041452:	181b      	adds	r3, r3, r0
10041454:	07dd      	lsls	r5, r3, #31
10041456:	085c      	lsrs	r4, r3, #1
10041458:	2307      	movs	r3, #7
1004145a:	0849      	lsrs	r1, r1, #1
1004145c:	430d      	orrs	r5, r1
1004145e:	0017      	movs	r7, r2
10041460:	402b      	ands	r3, r5
10041462:	e710      	b.n	10041286 <__aeabi_dsub+0x34a>
10041464:	4663      	mov	r3, ip
10041466:	1a1d      	subs	r5, r3, r0
10041468:	45ac      	cmp	ip, r5
1004146a:	4192      	sbcs	r2, r2
1004146c:	2601      	movs	r6, #1
1004146e:	9b02      	ldr	r3, [sp, #8]
10041470:	4252      	negs	r2, r2
10041472:	1b1c      	subs	r4, r3, r4
10041474:	4688      	mov	r8, r1
10041476:	1aa4      	subs	r4, r4, r2
10041478:	400e      	ands	r6, r1
1004147a:	e5c6      	b.n	1004100a <__aeabi_dsub+0xce>
1004147c:	4663      	mov	r3, ip
1004147e:	18c5      	adds	r5, r0, r3
10041480:	9b02      	ldr	r3, [sp, #8]
10041482:	4285      	cmp	r5, r0
10041484:	4180      	sbcs	r0, r0
10041486:	469c      	mov	ip, r3
10041488:	4240      	negs	r0, r0
1004148a:	4464      	add	r4, ip
1004148c:	1824      	adds	r4, r4, r0
1004148e:	2701      	movs	r7, #1
10041490:	0223      	lsls	r3, r4, #8
10041492:	d400      	bmi.n	10041496 <__aeabi_dsub+0x55a>
10041494:	e6f5      	b.n	10041282 <__aeabi_dsub+0x346>
10041496:	2702      	movs	r7, #2
10041498:	e641      	b.n	1004111e <__aeabi_dsub+0x1e2>
1004149a:	4663      	mov	r3, ip
1004149c:	1ac5      	subs	r5, r0, r3
1004149e:	42a8      	cmp	r0, r5
100414a0:	4180      	sbcs	r0, r0
100414a2:	9b02      	ldr	r3, [sp, #8]
100414a4:	4240      	negs	r0, r0
100414a6:	1ae4      	subs	r4, r4, r3
100414a8:	2701      	movs	r7, #1
100414aa:	1a24      	subs	r4, r4, r0
100414ac:	e5a8      	b.n	10041000 <__aeabi_dsub+0xc4>
100414ae:	9d02      	ldr	r5, [sp, #8]
100414b0:	4652      	mov	r2, sl
100414b2:	002b      	movs	r3, r5
100414b4:	3a20      	subs	r2, #32
100414b6:	40d3      	lsrs	r3, r2
100414b8:	0019      	movs	r1, r3
100414ba:	4653      	mov	r3, sl
100414bc:	2b20      	cmp	r3, #32
100414be:	d006      	beq.n	100414ce <__aeabi_dsub+0x592>
100414c0:	2240      	movs	r2, #64	@ 0x40
100414c2:	1ad2      	subs	r2, r2, r3
100414c4:	002b      	movs	r3, r5
100414c6:	4093      	lsls	r3, r2
100414c8:	4662      	mov	r2, ip
100414ca:	431a      	orrs	r2, r3
100414cc:	4693      	mov	fp, r2
100414ce:	465d      	mov	r5, fp
100414d0:	1e6b      	subs	r3, r5, #1
100414d2:	419d      	sbcs	r5, r3
100414d4:	430d      	orrs	r5, r1
100414d6:	e615      	b.n	10041104 <__aeabi_dsub+0x1c8>
100414d8:	0762      	lsls	r2, r4, #29
100414da:	08c0      	lsrs	r0, r0, #3
100414dc:	4302      	orrs	r2, r0
100414de:	08e4      	lsrs	r4, r4, #3
100414e0:	e70d      	b.n	100412fe <__aeabi_dsub+0x3c2>
100414e2:	0011      	movs	r1, r2
100414e4:	0027      	movs	r7, r4
100414e6:	3920      	subs	r1, #32
100414e8:	40cf      	lsrs	r7, r1
100414ea:	2a20      	cmp	r2, #32
100414ec:	d005      	beq.n	100414fa <__aeabi_dsub+0x5be>
100414ee:	2140      	movs	r1, #64	@ 0x40
100414f0:	1a8a      	subs	r2, r1, r2
100414f2:	4094      	lsls	r4, r2
100414f4:	0025      	movs	r5, r4
100414f6:	4305      	orrs	r5, r0
100414f8:	9503      	str	r5, [sp, #12]
100414fa:	9d03      	ldr	r5, [sp, #12]
100414fc:	1e6a      	subs	r2, r5, #1
100414fe:	4195      	sbcs	r5, r2
10041500:	433d      	orrs	r5, r7
10041502:	e77d      	b.n	10041400 <__aeabi_dsub+0x4c4>
10041504:	2a00      	cmp	r2, #0
10041506:	d100      	bne.n	1004150a <__aeabi_dsub+0x5ce>
10041508:	e744      	b.n	10041394 <__aeabi_dsub+0x458>
1004150a:	2601      	movs	r6, #1
1004150c:	400e      	ands	r6, r1
1004150e:	4663      	mov	r3, ip
10041510:	08d9      	lsrs	r1, r3, #3
10041512:	9b02      	ldr	r3, [sp, #8]
10041514:	075a      	lsls	r2, r3, #29
10041516:	430a      	orrs	r2, r1
10041518:	08dc      	lsrs	r4, r3, #3
1004151a:	e6f0      	b.n	100412fe <__aeabi_dsub+0x3c2>
1004151c:	2a00      	cmp	r2, #0
1004151e:	d028      	beq.n	10041572 <__aeabi_dsub+0x636>
10041520:	4662      	mov	r2, ip
10041522:	9f02      	ldr	r7, [sp, #8]
10041524:	08c0      	lsrs	r0, r0, #3
10041526:	433a      	orrs	r2, r7
10041528:	d100      	bne.n	1004152c <__aeabi_dsub+0x5f0>
1004152a:	e6dc      	b.n	100412e6 <__aeabi_dsub+0x3aa>
1004152c:	0762      	lsls	r2, r4, #29
1004152e:	4310      	orrs	r0, r2
10041530:	2280      	movs	r2, #128	@ 0x80
10041532:	08e4      	lsrs	r4, r4, #3
10041534:	0312      	lsls	r2, r2, #12
10041536:	4214      	tst	r4, r2
10041538:	d009      	beq.n	1004154e <__aeabi_dsub+0x612>
1004153a:	08fd      	lsrs	r5, r7, #3
1004153c:	4215      	tst	r5, r2
1004153e:	d106      	bne.n	1004154e <__aeabi_dsub+0x612>
10041540:	4663      	mov	r3, ip
10041542:	2601      	movs	r6, #1
10041544:	002c      	movs	r4, r5
10041546:	08d8      	lsrs	r0, r3, #3
10041548:	077b      	lsls	r3, r7, #29
1004154a:	4318      	orrs	r0, r3
1004154c:	400e      	ands	r6, r1
1004154e:	0f42      	lsrs	r2, r0, #29
10041550:	00c0      	lsls	r0, r0, #3
10041552:	08c0      	lsrs	r0, r0, #3
10041554:	0752      	lsls	r2, r2, #29
10041556:	4302      	orrs	r2, r0
10041558:	e601      	b.n	1004115e <__aeabi_dsub+0x222>
1004155a:	4663      	mov	r3, ip
1004155c:	1a1d      	subs	r5, r3, r0
1004155e:	45ac      	cmp	ip, r5
10041560:	4192      	sbcs	r2, r2
10041562:	9b02      	ldr	r3, [sp, #8]
10041564:	4252      	negs	r2, r2
10041566:	1b1c      	subs	r4, r3, r4
10041568:	000e      	movs	r6, r1
1004156a:	4688      	mov	r8, r1
1004156c:	2701      	movs	r7, #1
1004156e:	1aa4      	subs	r4, r4, r2
10041570:	e546      	b.n	10041000 <__aeabi_dsub+0xc4>
10041572:	4663      	mov	r3, ip
10041574:	08d9      	lsrs	r1, r3, #3
10041576:	9b02      	ldr	r3, [sp, #8]
10041578:	075a      	lsls	r2, r3, #29
1004157a:	430a      	orrs	r2, r1
1004157c:	08dc      	lsrs	r4, r3, #3
1004157e:	e5ee      	b.n	1004115e <__aeabi_dsub+0x222>
10041580:	4663      	mov	r3, ip
10041582:	9c02      	ldr	r4, [sp, #8]
10041584:	9303      	str	r3, [sp, #12]
10041586:	e6c7      	b.n	10041318 <__aeabi_dsub+0x3dc>
10041588:	08c0      	lsrs	r0, r0, #3
1004158a:	2a00      	cmp	r2, #0
1004158c:	d100      	bne.n	10041590 <__aeabi_dsub+0x654>
1004158e:	e6aa      	b.n	100412e6 <__aeabi_dsub+0x3aa>
10041590:	0762      	lsls	r2, r4, #29
10041592:	4310      	orrs	r0, r2
10041594:	2280      	movs	r2, #128	@ 0x80
10041596:	08e4      	lsrs	r4, r4, #3
10041598:	0312      	lsls	r2, r2, #12
1004159a:	4214      	tst	r4, r2
1004159c:	d0d7      	beq.n	1004154e <__aeabi_dsub+0x612>
1004159e:	9f02      	ldr	r7, [sp, #8]
100415a0:	08fd      	lsrs	r5, r7, #3
100415a2:	4215      	tst	r5, r2
100415a4:	d1d3      	bne.n	1004154e <__aeabi_dsub+0x612>
100415a6:	4663      	mov	r3, ip
100415a8:	2601      	movs	r6, #1
100415aa:	08d8      	lsrs	r0, r3, #3
100415ac:	077b      	lsls	r3, r7, #29
100415ae:	002c      	movs	r4, r5
100415b0:	4318      	orrs	r0, r3
100415b2:	400e      	ands	r6, r1
100415b4:	e7cb      	b.n	1004154e <__aeabi_dsub+0x612>
100415b6:	000a      	movs	r2, r1
100415b8:	0027      	movs	r7, r4
100415ba:	3a20      	subs	r2, #32
100415bc:	40d7      	lsrs	r7, r2
100415be:	2920      	cmp	r1, #32
100415c0:	d005      	beq.n	100415ce <__aeabi_dsub+0x692>
100415c2:	2240      	movs	r2, #64	@ 0x40
100415c4:	1a52      	subs	r2, r2, r1
100415c6:	4094      	lsls	r4, r2
100415c8:	0025      	movs	r5, r4
100415ca:	4305      	orrs	r5, r0
100415cc:	9503      	str	r5, [sp, #12]
100415ce:	9d03      	ldr	r5, [sp, #12]
100415d0:	1e6a      	subs	r2, r5, #1
100415d2:	4195      	sbcs	r5, r2
100415d4:	432f      	orrs	r7, r5
100415d6:	e610      	b.n	100411fa <__aeabi_dsub+0x2be>
100415d8:	0014      	movs	r4, r2
100415da:	2500      	movs	r5, #0
100415dc:	2200      	movs	r2, #0
100415de:	e556      	b.n	1004108e <__aeabi_dsub+0x152>
100415e0:	9b02      	ldr	r3, [sp, #8]
100415e2:	4460      	add	r0, ip
100415e4:	4699      	mov	r9, r3
100415e6:	4560      	cmp	r0, ip
100415e8:	4192      	sbcs	r2, r2
100415ea:	444c      	add	r4, r9
100415ec:	4252      	negs	r2, r2
100415ee:	0005      	movs	r5, r0
100415f0:	18a4      	adds	r4, r4, r2
100415f2:	e74c      	b.n	1004148e <__aeabi_dsub+0x552>
100415f4:	001a      	movs	r2, r3
100415f6:	001c      	movs	r4, r3
100415f8:	432a      	orrs	r2, r5
100415fa:	d000      	beq.n	100415fe <__aeabi_dsub+0x6c2>
100415fc:	e6b3      	b.n	10041366 <__aeabi_dsub+0x42a>
100415fe:	e6c9      	b.n	10041394 <__aeabi_dsub+0x458>
10041600:	2480      	movs	r4, #128	@ 0x80
10041602:	2600      	movs	r6, #0
10041604:	0324      	lsls	r4, r4, #12
10041606:	e5ae      	b.n	10041166 <__aeabi_dsub+0x22a>
10041608:	2120      	movs	r1, #32
1004160a:	2500      	movs	r5, #0
1004160c:	1a09      	subs	r1, r1, r0
1004160e:	e517      	b.n	10041040 <__aeabi_dsub+0x104>
10041610:	2200      	movs	r2, #0
10041612:	2500      	movs	r5, #0
10041614:	4c0b      	ldr	r4, [pc, #44]	@ (10041644 <__aeabi_dsub+0x708>)
10041616:	e53a      	b.n	1004108e <__aeabi_dsub+0x152>
10041618:	2d00      	cmp	r5, #0
1004161a:	d100      	bne.n	1004161e <__aeabi_dsub+0x6e2>
1004161c:	e5f6      	b.n	1004120c <__aeabi_dsub+0x2d0>
1004161e:	464b      	mov	r3, r9
10041620:	1bda      	subs	r2, r3, r7
10041622:	4692      	mov	sl, r2
10041624:	2f00      	cmp	r7, #0
10041626:	d100      	bne.n	1004162a <__aeabi_dsub+0x6ee>
10041628:	e66f      	b.n	1004130a <__aeabi_dsub+0x3ce>
1004162a:	2a38      	cmp	r2, #56	@ 0x38
1004162c:	dc05      	bgt.n	1004163a <__aeabi_dsub+0x6fe>
1004162e:	2680      	movs	r6, #128	@ 0x80
10041630:	0436      	lsls	r6, r6, #16
10041632:	4334      	orrs	r4, r6
10041634:	4688      	mov	r8, r1
10041636:	000e      	movs	r6, r1
10041638:	e6d1      	b.n	100413de <__aeabi_dsub+0x4a2>
1004163a:	4688      	mov	r8, r1
1004163c:	000e      	movs	r6, r1
1004163e:	2501      	movs	r5, #1
10041640:	e6de      	b.n	10041400 <__aeabi_dsub+0x4c4>
10041642:	46c0      	nop			@ (mov r8, r8)
10041644:	000007ff 	.word	0x000007ff
10041648:	ff7fffff 	.word	0xff7fffff
1004164c:	000007fe 	.word	0x000007fe
10041650:	2d00      	cmp	r5, #0
10041652:	d100      	bne.n	10041656 <__aeabi_dsub+0x71a>
10041654:	e668      	b.n	10041328 <__aeabi_dsub+0x3ec>
10041656:	464b      	mov	r3, r9
10041658:	1bd9      	subs	r1, r3, r7
1004165a:	2f00      	cmp	r7, #0
1004165c:	d101      	bne.n	10041662 <__aeabi_dsub+0x726>
1004165e:	468a      	mov	sl, r1
10041660:	e5a7      	b.n	100411b2 <__aeabi_dsub+0x276>
10041662:	2701      	movs	r7, #1
10041664:	2938      	cmp	r1, #56	@ 0x38
10041666:	dd00      	ble.n	1004166a <__aeabi_dsub+0x72e>
10041668:	e5c7      	b.n	100411fa <__aeabi_dsub+0x2be>
1004166a:	2280      	movs	r2, #128	@ 0x80
1004166c:	0412      	lsls	r2, r2, #16
1004166e:	4314      	orrs	r4, r2
10041670:	e5af      	b.n	100411d2 <__aeabi_dsub+0x296>
10041672:	46c0      	nop			@ (mov r8, r8)

10041674 <__aeabi_d2iz>:
10041674:	000b      	movs	r3, r1
10041676:	0002      	movs	r2, r0
10041678:	b570      	push	{r4, r5, r6, lr}
1004167a:	4d16      	ldr	r5, [pc, #88]	@ (100416d4 <__aeabi_d2iz+0x60>)
1004167c:	030c      	lsls	r4, r1, #12
1004167e:	b082      	sub	sp, #8
10041680:	0049      	lsls	r1, r1, #1
10041682:	2000      	movs	r0, #0
10041684:	9200      	str	r2, [sp, #0]
10041686:	9301      	str	r3, [sp, #4]
10041688:	0b24      	lsrs	r4, r4, #12
1004168a:	0d49      	lsrs	r1, r1, #21
1004168c:	0fde      	lsrs	r6, r3, #31
1004168e:	42a9      	cmp	r1, r5
10041690:	dd04      	ble.n	1004169c <__aeabi_d2iz+0x28>
10041692:	4811      	ldr	r0, [pc, #68]	@ (100416d8 <__aeabi_d2iz+0x64>)
10041694:	4281      	cmp	r1, r0
10041696:	dd03      	ble.n	100416a0 <__aeabi_d2iz+0x2c>
10041698:	4b10      	ldr	r3, [pc, #64]	@ (100416dc <__aeabi_d2iz+0x68>)
1004169a:	18f0      	adds	r0, r6, r3
1004169c:	b002      	add	sp, #8
1004169e:	bd70      	pop	{r4, r5, r6, pc}
100416a0:	2080      	movs	r0, #128	@ 0x80
100416a2:	0340      	lsls	r0, r0, #13
100416a4:	4320      	orrs	r0, r4
100416a6:	4c0e      	ldr	r4, [pc, #56]	@ (100416e0 <__aeabi_d2iz+0x6c>)
100416a8:	1a64      	subs	r4, r4, r1
100416aa:	2c1f      	cmp	r4, #31
100416ac:	dd08      	ble.n	100416c0 <__aeabi_d2iz+0x4c>
100416ae:	4b0d      	ldr	r3, [pc, #52]	@ (100416e4 <__aeabi_d2iz+0x70>)
100416b0:	1a5b      	subs	r3, r3, r1
100416b2:	40d8      	lsrs	r0, r3
100416b4:	0003      	movs	r3, r0
100416b6:	4258      	negs	r0, r3
100416b8:	2e00      	cmp	r6, #0
100416ba:	d1ef      	bne.n	1004169c <__aeabi_d2iz+0x28>
100416bc:	0018      	movs	r0, r3
100416be:	e7ed      	b.n	1004169c <__aeabi_d2iz+0x28>
100416c0:	4b09      	ldr	r3, [pc, #36]	@ (100416e8 <__aeabi_d2iz+0x74>)
100416c2:	9a00      	ldr	r2, [sp, #0]
100416c4:	469c      	mov	ip, r3
100416c6:	0003      	movs	r3, r0
100416c8:	4461      	add	r1, ip
100416ca:	408b      	lsls	r3, r1
100416cc:	40e2      	lsrs	r2, r4
100416ce:	4313      	orrs	r3, r2
100416d0:	e7f1      	b.n	100416b6 <__aeabi_d2iz+0x42>
100416d2:	46c0      	nop			@ (mov r8, r8)
100416d4:	000003fe 	.word	0x000003fe
100416d8:	0000041d 	.word	0x0000041d
100416dc:	7fffffff 	.word	0x7fffffff
100416e0:	00000433 	.word	0x00000433
100416e4:	00000413 	.word	0x00000413
100416e8:	fffffbed 	.word	0xfffffbed

100416ec <__aeabi_ui2d>:
100416ec:	b510      	push	{r4, lr}
100416ee:	1e04      	subs	r4, r0, #0
100416f0:	d010      	beq.n	10041714 <__aeabi_ui2d+0x28>
100416f2:	f000 f85d 	bl	100417b0 <__clzsi2>
100416f6:	4b0e      	ldr	r3, [pc, #56]	@ (10041730 <__aeabi_ui2d+0x44>)
100416f8:	1a1b      	subs	r3, r3, r0
100416fa:	055b      	lsls	r3, r3, #21
100416fc:	0d5b      	lsrs	r3, r3, #21
100416fe:	280a      	cmp	r0, #10
10041700:	dc0f      	bgt.n	10041722 <__aeabi_ui2d+0x36>
10041702:	220b      	movs	r2, #11
10041704:	0021      	movs	r1, r4
10041706:	1a12      	subs	r2, r2, r0
10041708:	40d1      	lsrs	r1, r2
1004170a:	3015      	adds	r0, #21
1004170c:	030a      	lsls	r2, r1, #12
1004170e:	4084      	lsls	r4, r0
10041710:	0b12      	lsrs	r2, r2, #12
10041712:	e001      	b.n	10041718 <__aeabi_ui2d+0x2c>
10041714:	2300      	movs	r3, #0
10041716:	2200      	movs	r2, #0
10041718:	051b      	lsls	r3, r3, #20
1004171a:	4313      	orrs	r3, r2
1004171c:	0020      	movs	r0, r4
1004171e:	0019      	movs	r1, r3
10041720:	bd10      	pop	{r4, pc}
10041722:	0022      	movs	r2, r4
10041724:	380b      	subs	r0, #11
10041726:	4082      	lsls	r2, r0
10041728:	0312      	lsls	r2, r2, #12
1004172a:	2400      	movs	r4, #0
1004172c:	0b12      	lsrs	r2, r2, #12
1004172e:	e7f3      	b.n	10041718 <__aeabi_ui2d+0x2c>
10041730:	0000041e 	.word	0x0000041e

10041734 <__aeabi_cdrcmple>:
10041734:	4684      	mov	ip, r0
10041736:	0010      	movs	r0, r2
10041738:	4662      	mov	r2, ip
1004173a:	468c      	mov	ip, r1
1004173c:	0019      	movs	r1, r3
1004173e:	4663      	mov	r3, ip
10041740:	e000      	b.n	10041744 <__aeabi_cdcmpeq>
10041742:	46c0      	nop			@ (mov r8, r8)

10041744 <__aeabi_cdcmpeq>:
10041744:	b51f      	push	{r0, r1, r2, r3, r4, lr}
10041746:	f000 f909 	bl	1004195c <__ledf2>
1004174a:	2800      	cmp	r0, #0
1004174c:	d401      	bmi.n	10041752 <__aeabi_cdcmpeq+0xe>
1004174e:	2100      	movs	r1, #0
10041750:	42c8      	cmn	r0, r1
10041752:	bd1f      	pop	{r0, r1, r2, r3, r4, pc}

10041754 <__aeabi_dcmpeq>:
10041754:	b510      	push	{r4, lr}
10041756:	f000 f849 	bl	100417ec <__eqdf2>
1004175a:	4240      	negs	r0, r0
1004175c:	3001      	adds	r0, #1
1004175e:	bd10      	pop	{r4, pc}

10041760 <__aeabi_dcmplt>:
10041760:	b510      	push	{r4, lr}
10041762:	f000 f8fb 	bl	1004195c <__ledf2>
10041766:	2800      	cmp	r0, #0
10041768:	db01      	blt.n	1004176e <__aeabi_dcmplt+0xe>
1004176a:	2000      	movs	r0, #0
1004176c:	bd10      	pop	{r4, pc}
1004176e:	2001      	movs	r0, #1
10041770:	bd10      	pop	{r4, pc}
10041772:	46c0      	nop			@ (mov r8, r8)

10041774 <__aeabi_dcmple>:
10041774:	b510      	push	{r4, lr}
10041776:	f000 f8f1 	bl	1004195c <__ledf2>
1004177a:	2800      	cmp	r0, #0
1004177c:	dd01      	ble.n	10041782 <__aeabi_dcmple+0xe>
1004177e:	2000      	movs	r0, #0
10041780:	bd10      	pop	{r4, pc}
10041782:	2001      	movs	r0, #1
10041784:	bd10      	pop	{r4, pc}
10041786:	46c0      	nop			@ (mov r8, r8)

10041788 <__aeabi_dcmpgt>:
10041788:	b510      	push	{r4, lr}
1004178a:	f000 f873 	bl	10041874 <__gedf2>
1004178e:	2800      	cmp	r0, #0
10041790:	dc01      	bgt.n	10041796 <__aeabi_dcmpgt+0xe>
10041792:	2000      	movs	r0, #0
10041794:	bd10      	pop	{r4, pc}
10041796:	2001      	movs	r0, #1
10041798:	bd10      	pop	{r4, pc}
1004179a:	46c0      	nop			@ (mov r8, r8)

1004179c <__aeabi_dcmpge>:
1004179c:	b510      	push	{r4, lr}
1004179e:	f000 f869 	bl	10041874 <__gedf2>
100417a2:	2800      	cmp	r0, #0
100417a4:	da01      	bge.n	100417aa <__aeabi_dcmpge+0xe>
100417a6:	2000      	movs	r0, #0
100417a8:	bd10      	pop	{r4, pc}
100417aa:	2001      	movs	r0, #1
100417ac:	bd10      	pop	{r4, pc}
100417ae:	46c0      	nop			@ (mov r8, r8)

100417b0 <__clzsi2>:
100417b0:	211c      	movs	r1, #28
100417b2:	2301      	movs	r3, #1
100417b4:	041b      	lsls	r3, r3, #16
100417b6:	4298      	cmp	r0, r3
100417b8:	d301      	bcc.n	100417be <__clzsi2+0xe>
100417ba:	0c00      	lsrs	r0, r0, #16
100417bc:	3910      	subs	r1, #16
100417be:	0a1b      	lsrs	r3, r3, #8
100417c0:	4298      	cmp	r0, r3
100417c2:	d301      	bcc.n	100417c8 <__clzsi2+0x18>
100417c4:	0a00      	lsrs	r0, r0, #8
100417c6:	3908      	subs	r1, #8
100417c8:	091b      	lsrs	r3, r3, #4
100417ca:	4298      	cmp	r0, r3
100417cc:	d301      	bcc.n	100417d2 <__clzsi2+0x22>
100417ce:	0900      	lsrs	r0, r0, #4
100417d0:	3904      	subs	r1, #4
100417d2:	a202      	add	r2, pc, #8	@ (adr r2, 100417dc <__clzsi2+0x2c>)
100417d4:	5c10      	ldrb	r0, [r2, r0]
100417d6:	1840      	adds	r0, r0, r1
100417d8:	4770      	bx	lr
100417da:	46c0      	nop			@ (mov r8, r8)
100417dc:	02020304 	.word	0x02020304
100417e0:	01010101 	.word	0x01010101
	...

100417ec <__eqdf2>:
100417ec:	b5f0      	push	{r4, r5, r6, r7, lr}
100417ee:	4657      	mov	r7, sl
100417f0:	46de      	mov	lr, fp
100417f2:	464e      	mov	r6, r9
100417f4:	4645      	mov	r5, r8
100417f6:	b5e0      	push	{r5, r6, r7, lr}
100417f8:	000d      	movs	r5, r1
100417fa:	0004      	movs	r4, r0
100417fc:	0fe8      	lsrs	r0, r5, #31
100417fe:	4683      	mov	fp, r0
10041800:	0309      	lsls	r1, r1, #12
10041802:	0fd8      	lsrs	r0, r3, #31
10041804:	0b09      	lsrs	r1, r1, #12
10041806:	4682      	mov	sl, r0
10041808:	4819      	ldr	r0, [pc, #100]	@ (10041870 <__eqdf2+0x84>)
1004180a:	468c      	mov	ip, r1
1004180c:	031f      	lsls	r7, r3, #12
1004180e:	0069      	lsls	r1, r5, #1
10041810:	005e      	lsls	r6, r3, #1
10041812:	0d49      	lsrs	r1, r1, #21
10041814:	0b3f      	lsrs	r7, r7, #12
10041816:	0d76      	lsrs	r6, r6, #21
10041818:	4281      	cmp	r1, r0
1004181a:	d018      	beq.n	1004184e <__eqdf2+0x62>
1004181c:	4286      	cmp	r6, r0
1004181e:	d00f      	beq.n	10041840 <__eqdf2+0x54>
10041820:	2001      	movs	r0, #1
10041822:	42b1      	cmp	r1, r6
10041824:	d10d      	bne.n	10041842 <__eqdf2+0x56>
10041826:	45bc      	cmp	ip, r7
10041828:	d10b      	bne.n	10041842 <__eqdf2+0x56>
1004182a:	4294      	cmp	r4, r2
1004182c:	d109      	bne.n	10041842 <__eqdf2+0x56>
1004182e:	45d3      	cmp	fp, sl
10041830:	d01c      	beq.n	1004186c <__eqdf2+0x80>
10041832:	2900      	cmp	r1, #0
10041834:	d105      	bne.n	10041842 <__eqdf2+0x56>
10041836:	4660      	mov	r0, ip
10041838:	4320      	orrs	r0, r4
1004183a:	1e43      	subs	r3, r0, #1
1004183c:	4198      	sbcs	r0, r3
1004183e:	e000      	b.n	10041842 <__eqdf2+0x56>
10041840:	2001      	movs	r0, #1
10041842:	bcf0      	pop	{r4, r5, r6, r7}
10041844:	46bb      	mov	fp, r7
10041846:	46b2      	mov	sl, r6
10041848:	46a9      	mov	r9, r5
1004184a:	46a0      	mov	r8, r4
1004184c:	bdf0      	pop	{r4, r5, r6, r7, pc}
1004184e:	2001      	movs	r0, #1
10041850:	428e      	cmp	r6, r1
10041852:	d1f6      	bne.n	10041842 <__eqdf2+0x56>
10041854:	4661      	mov	r1, ip
10041856:	4339      	orrs	r1, r7
10041858:	000f      	movs	r7, r1
1004185a:	4317      	orrs	r7, r2
1004185c:	4327      	orrs	r7, r4
1004185e:	d1f0      	bne.n	10041842 <__eqdf2+0x56>
10041860:	465b      	mov	r3, fp
10041862:	4652      	mov	r2, sl
10041864:	1a98      	subs	r0, r3, r2
10041866:	1e43      	subs	r3, r0, #1
10041868:	4198      	sbcs	r0, r3
1004186a:	e7ea      	b.n	10041842 <__eqdf2+0x56>
1004186c:	2000      	movs	r0, #0
1004186e:	e7e8      	b.n	10041842 <__eqdf2+0x56>
10041870:	000007ff 	.word	0x000007ff

10041874 <__gedf2>:
10041874:	b5f0      	push	{r4, r5, r6, r7, lr}
10041876:	4657      	mov	r7, sl
10041878:	464e      	mov	r6, r9
1004187a:	4645      	mov	r5, r8
1004187c:	46de      	mov	lr, fp
1004187e:	b5e0      	push	{r5, r6, r7, lr}
10041880:	000d      	movs	r5, r1
10041882:	030f      	lsls	r7, r1, #12
10041884:	0b39      	lsrs	r1, r7, #12
10041886:	b083      	sub	sp, #12
10041888:	0004      	movs	r4, r0
1004188a:	4680      	mov	r8, r0
1004188c:	9101      	str	r1, [sp, #4]
1004188e:	0058      	lsls	r0, r3, #1
10041890:	0fe9      	lsrs	r1, r5, #31
10041892:	4f31      	ldr	r7, [pc, #196]	@ (10041958 <__gedf2+0xe4>)
10041894:	0d40      	lsrs	r0, r0, #21
10041896:	468c      	mov	ip, r1
10041898:	006e      	lsls	r6, r5, #1
1004189a:	0319      	lsls	r1, r3, #12
1004189c:	4682      	mov	sl, r0
1004189e:	4691      	mov	r9, r2
100418a0:	0d76      	lsrs	r6, r6, #21
100418a2:	0b09      	lsrs	r1, r1, #12
100418a4:	0fd8      	lsrs	r0, r3, #31
100418a6:	42be      	cmp	r6, r7
100418a8:	d01f      	beq.n	100418ea <__gedf2+0x76>
100418aa:	45ba      	cmp	sl, r7
100418ac:	d00f      	beq.n	100418ce <__gedf2+0x5a>
100418ae:	2e00      	cmp	r6, #0
100418b0:	d12f      	bne.n	10041912 <__gedf2+0x9e>
100418b2:	4655      	mov	r5, sl
100418b4:	9e01      	ldr	r6, [sp, #4]
100418b6:	4334      	orrs	r4, r6
100418b8:	2d00      	cmp	r5, #0
100418ba:	d127      	bne.n	1004190c <__gedf2+0x98>
100418bc:	430a      	orrs	r2, r1
100418be:	d03a      	beq.n	10041936 <__gedf2+0xc2>
100418c0:	2c00      	cmp	r4, #0
100418c2:	d145      	bne.n	10041950 <__gedf2+0xdc>
100418c4:	2800      	cmp	r0, #0
100418c6:	d11a      	bne.n	100418fe <__gedf2+0x8a>
100418c8:	2001      	movs	r0, #1
100418ca:	4240      	negs	r0, r0
100418cc:	e017      	b.n	100418fe <__gedf2+0x8a>
100418ce:	4311      	orrs	r1, r2
100418d0:	d13b      	bne.n	1004194a <__gedf2+0xd6>
100418d2:	2e00      	cmp	r6, #0
100418d4:	d102      	bne.n	100418dc <__gedf2+0x68>
100418d6:	9f01      	ldr	r7, [sp, #4]
100418d8:	4327      	orrs	r7, r4
100418da:	d0f3      	beq.n	100418c4 <__gedf2+0x50>
100418dc:	4584      	cmp	ip, r0
100418de:	d109      	bne.n	100418f4 <__gedf2+0x80>
100418e0:	4663      	mov	r3, ip
100418e2:	2b00      	cmp	r3, #0
100418e4:	d0f0      	beq.n	100418c8 <__gedf2+0x54>
100418e6:	4660      	mov	r0, ip
100418e8:	e009      	b.n	100418fe <__gedf2+0x8a>
100418ea:	9f01      	ldr	r7, [sp, #4]
100418ec:	4327      	orrs	r7, r4
100418ee:	d12c      	bne.n	1004194a <__gedf2+0xd6>
100418f0:	45b2      	cmp	sl, r6
100418f2:	d024      	beq.n	1004193e <__gedf2+0xca>
100418f4:	4663      	mov	r3, ip
100418f6:	2002      	movs	r0, #2
100418f8:	3b01      	subs	r3, #1
100418fa:	4018      	ands	r0, r3
100418fc:	3801      	subs	r0, #1
100418fe:	b003      	add	sp, #12
10041900:	bcf0      	pop	{r4, r5, r6, r7}
10041902:	46bb      	mov	fp, r7
10041904:	46b2      	mov	sl, r6
10041906:	46a9      	mov	r9, r5
10041908:	46a0      	mov	r8, r4
1004190a:	bdf0      	pop	{r4, r5, r6, r7, pc}
1004190c:	2c00      	cmp	r4, #0
1004190e:	d0d9      	beq.n	100418c4 <__gedf2+0x50>
10041910:	e7e4      	b.n	100418dc <__gedf2+0x68>
10041912:	4654      	mov	r4, sl
10041914:	2c00      	cmp	r4, #0
10041916:	d0ed      	beq.n	100418f4 <__gedf2+0x80>
10041918:	4584      	cmp	ip, r0
1004191a:	d1eb      	bne.n	100418f4 <__gedf2+0x80>
1004191c:	4556      	cmp	r6, sl
1004191e:	dce9      	bgt.n	100418f4 <__gedf2+0x80>
10041920:	dbde      	blt.n	100418e0 <__gedf2+0x6c>
10041922:	9b01      	ldr	r3, [sp, #4]
10041924:	428b      	cmp	r3, r1
10041926:	d8e5      	bhi.n	100418f4 <__gedf2+0x80>
10041928:	d1da      	bne.n	100418e0 <__gedf2+0x6c>
1004192a:	45c8      	cmp	r8, r9
1004192c:	d8e2      	bhi.n	100418f4 <__gedf2+0x80>
1004192e:	2000      	movs	r0, #0
10041930:	45c8      	cmp	r8, r9
10041932:	d2e4      	bcs.n	100418fe <__gedf2+0x8a>
10041934:	e7d4      	b.n	100418e0 <__gedf2+0x6c>
10041936:	2000      	movs	r0, #0
10041938:	2c00      	cmp	r4, #0
1004193a:	d0e0      	beq.n	100418fe <__gedf2+0x8a>
1004193c:	e7da      	b.n	100418f4 <__gedf2+0x80>
1004193e:	4311      	orrs	r1, r2
10041940:	d103      	bne.n	1004194a <__gedf2+0xd6>
10041942:	4584      	cmp	ip, r0
10041944:	d1d6      	bne.n	100418f4 <__gedf2+0x80>
10041946:	2000      	movs	r0, #0
10041948:	e7d9      	b.n	100418fe <__gedf2+0x8a>
1004194a:	2002      	movs	r0, #2
1004194c:	4240      	negs	r0, r0
1004194e:	e7d6      	b.n	100418fe <__gedf2+0x8a>
10041950:	4584      	cmp	ip, r0
10041952:	d0e6      	beq.n	10041922 <__gedf2+0xae>
10041954:	e7ce      	b.n	100418f4 <__gedf2+0x80>
10041956:	46c0      	nop			@ (mov r8, r8)
10041958:	000007ff 	.word	0x000007ff

1004195c <__ledf2>:
1004195c:	b5f0      	push	{r4, r5, r6, r7, lr}
1004195e:	4657      	mov	r7, sl
10041960:	464e      	mov	r6, r9
10041962:	4645      	mov	r5, r8
10041964:	46de      	mov	lr, fp
10041966:	b5e0      	push	{r5, r6, r7, lr}
10041968:	000d      	movs	r5, r1
1004196a:	030f      	lsls	r7, r1, #12
1004196c:	0004      	movs	r4, r0
1004196e:	4680      	mov	r8, r0
10041970:	0fe8      	lsrs	r0, r5, #31
10041972:	0b39      	lsrs	r1, r7, #12
10041974:	4684      	mov	ip, r0
10041976:	b083      	sub	sp, #12
10041978:	0058      	lsls	r0, r3, #1
1004197a:	4f30      	ldr	r7, [pc, #192]	@ (10041a3c <__ledf2+0xe0>)
1004197c:	0d40      	lsrs	r0, r0, #21
1004197e:	9101      	str	r1, [sp, #4]
10041980:	031e      	lsls	r6, r3, #12
10041982:	0069      	lsls	r1, r5, #1
10041984:	4682      	mov	sl, r0
10041986:	4691      	mov	r9, r2
10041988:	0d49      	lsrs	r1, r1, #21
1004198a:	0b36      	lsrs	r6, r6, #12
1004198c:	0fd8      	lsrs	r0, r3, #31
1004198e:	42b9      	cmp	r1, r7
10041990:	d020      	beq.n	100419d4 <__ledf2+0x78>
10041992:	45ba      	cmp	sl, r7
10041994:	d00f      	beq.n	100419b6 <__ledf2+0x5a>
10041996:	2900      	cmp	r1, #0
10041998:	d12b      	bne.n	100419f2 <__ledf2+0x96>
1004199a:	9901      	ldr	r1, [sp, #4]
1004199c:	430c      	orrs	r4, r1
1004199e:	4651      	mov	r1, sl
100419a0:	2900      	cmp	r1, #0
100419a2:	d137      	bne.n	10041a14 <__ledf2+0xb8>
100419a4:	4332      	orrs	r2, r6
100419a6:	d038      	beq.n	10041a1a <__ledf2+0xbe>
100419a8:	2c00      	cmp	r4, #0
100419aa:	d144      	bne.n	10041a36 <__ledf2+0xda>
100419ac:	2800      	cmp	r0, #0
100419ae:	d119      	bne.n	100419e4 <__ledf2+0x88>
100419b0:	2001      	movs	r0, #1
100419b2:	4240      	negs	r0, r0
100419b4:	e016      	b.n	100419e4 <__ledf2+0x88>
100419b6:	4316      	orrs	r6, r2
100419b8:	d113      	bne.n	100419e2 <__ledf2+0x86>
100419ba:	2900      	cmp	r1, #0
100419bc:	d102      	bne.n	100419c4 <__ledf2+0x68>
100419be:	9f01      	ldr	r7, [sp, #4]
100419c0:	4327      	orrs	r7, r4
100419c2:	d0f3      	beq.n	100419ac <__ledf2+0x50>
100419c4:	4584      	cmp	ip, r0
100419c6:	d020      	beq.n	10041a0a <__ledf2+0xae>
100419c8:	4663      	mov	r3, ip
100419ca:	2002      	movs	r0, #2
100419cc:	3b01      	subs	r3, #1
100419ce:	4018      	ands	r0, r3
100419d0:	3801      	subs	r0, #1
100419d2:	e007      	b.n	100419e4 <__ledf2+0x88>
100419d4:	9f01      	ldr	r7, [sp, #4]
100419d6:	4327      	orrs	r7, r4
100419d8:	d103      	bne.n	100419e2 <__ledf2+0x86>
100419da:	458a      	cmp	sl, r1
100419dc:	d1f4      	bne.n	100419c8 <__ledf2+0x6c>
100419de:	4316      	orrs	r6, r2
100419e0:	d01f      	beq.n	10041a22 <__ledf2+0xc6>
100419e2:	2002      	movs	r0, #2
100419e4:	b003      	add	sp, #12
100419e6:	bcf0      	pop	{r4, r5, r6, r7}
100419e8:	46bb      	mov	fp, r7
100419ea:	46b2      	mov	sl, r6
100419ec:	46a9      	mov	r9, r5
100419ee:	46a0      	mov	r8, r4
100419f0:	bdf0      	pop	{r4, r5, r6, r7, pc}
100419f2:	4654      	mov	r4, sl
100419f4:	2c00      	cmp	r4, #0
100419f6:	d0e7      	beq.n	100419c8 <__ledf2+0x6c>
100419f8:	4584      	cmp	ip, r0
100419fa:	d1e5      	bne.n	100419c8 <__ledf2+0x6c>
100419fc:	4551      	cmp	r1, sl
100419fe:	dce3      	bgt.n	100419c8 <__ledf2+0x6c>
10041a00:	db03      	blt.n	10041a0a <__ledf2+0xae>
10041a02:	9b01      	ldr	r3, [sp, #4]
10041a04:	42b3      	cmp	r3, r6
10041a06:	d8df      	bhi.n	100419c8 <__ledf2+0x6c>
10041a08:	d00f      	beq.n	10041a2a <__ledf2+0xce>
10041a0a:	4663      	mov	r3, ip
10041a0c:	2b00      	cmp	r3, #0
10041a0e:	d0cf      	beq.n	100419b0 <__ledf2+0x54>
10041a10:	4660      	mov	r0, ip
10041a12:	e7e7      	b.n	100419e4 <__ledf2+0x88>
10041a14:	2c00      	cmp	r4, #0
10041a16:	d0c9      	beq.n	100419ac <__ledf2+0x50>
10041a18:	e7d4      	b.n	100419c4 <__ledf2+0x68>
10041a1a:	2000      	movs	r0, #0
10041a1c:	2c00      	cmp	r4, #0
10041a1e:	d0e1      	beq.n	100419e4 <__ledf2+0x88>
10041a20:	e7d2      	b.n	100419c8 <__ledf2+0x6c>
10041a22:	4584      	cmp	ip, r0
10041a24:	d1d0      	bne.n	100419c8 <__ledf2+0x6c>
10041a26:	2000      	movs	r0, #0
10041a28:	e7dc      	b.n	100419e4 <__ledf2+0x88>
10041a2a:	45c8      	cmp	r8, r9
10041a2c:	d8cc      	bhi.n	100419c8 <__ledf2+0x6c>
10041a2e:	2000      	movs	r0, #0
10041a30:	45c8      	cmp	r8, r9
10041a32:	d2d7      	bcs.n	100419e4 <__ledf2+0x88>
10041a34:	e7e9      	b.n	10041a0a <__ledf2+0xae>
10041a36:	4584      	cmp	ip, r0
10041a38:	d0e3      	beq.n	10041a02 <__ledf2+0xa6>
10041a3a:	e7c5      	b.n	100419c8 <__ledf2+0x6c>
10041a3c:	000007ff 	.word	0x000007ff

10041a40 <DW1000_write_reg>:
10041a40:	b573      	push	{r0, r1, r4, r5, r6, lr}
10041a42:	001e      	movs	r6, r3
10041a44:	233f      	movs	r3, #63	@ 0x3f
10041a46:	400b      	ands	r3, r1
10041a48:	2180      	movs	r1, #128	@ 0x80
10041a4a:	4319      	orrs	r1, r3
10041a4c:	9101      	str	r1, [sp, #4]
10041a4e:	0014      	movs	r4, r2
10041a50:	0005      	movs	r5, r0
10041a52:	8981      	ldrh	r1, [r0, #12]
10041a54:	2200      	movs	r2, #0
10041a56:	6840      	ldr	r0, [r0, #4]
10041a58:	f001 fb49 	bl	100430ee <HAL_GPIO_WritePin>
10041a5c:	2cff      	cmp	r4, #255	@ 0xff
10041a5e:	d917      	bls.n	10041a90 <DW1000_write_reg+0x50>
10041a60:	9a01      	ldr	r2, [sp, #4]
10041a62:	0223      	lsls	r3, r4, #8
10041a64:	4c12      	ldr	r4, [pc, #72]	@ (10041ab0 <DW1000_write_reg+0x70>)
10041a66:	4313      	orrs	r3, r2
10041a68:	431c      	orrs	r4, r3
10041a6a:	2203      	movs	r2, #3
10041a6c:	230a      	movs	r3, #10
10041a6e:	6828      	ldr	r0, [r5, #0]
10041a70:	9401      	str	r4, [sp, #4]
10041a72:	a901      	add	r1, sp, #4
10041a74:	f000 fc80 	bl	10042378 <SPI_write8>
10041a78:	0031      	movs	r1, r6
10041a7a:	230a      	movs	r3, #10
10041a7c:	9a06      	ldr	r2, [sp, #24]
10041a7e:	6828      	ldr	r0, [r5, #0]
10041a80:	f000 fc7a 	bl	10042378 <SPI_write8>
10041a84:	89a9      	ldrh	r1, [r5, #12]
10041a86:	6868      	ldr	r0, [r5, #4]
10041a88:	2201      	movs	r2, #1
10041a8a:	f001 fb30 	bl	100430ee <HAL_GPIO_WritePin>
10041a8e:	bd73      	pop	{r0, r1, r4, r5, r6, pc}
10041a90:	6828      	ldr	r0, [r5, #0]
10041a92:	2c00      	cmp	r4, #0
10041a94:	d009      	beq.n	10041aaa <DW1000_write_reg+0x6a>
10041a96:	9b01      	ldr	r3, [sp, #4]
10041a98:	0224      	lsls	r4, r4, #8
10041a9a:	431c      	orrs	r4, r3
10041a9c:	2340      	movs	r3, #64	@ 0x40
10041a9e:	4323      	orrs	r3, r4
10041aa0:	9301      	str	r3, [sp, #4]
10041aa2:	2202      	movs	r2, #2
10041aa4:	230a      	movs	r3, #10
10041aa6:	a901      	add	r1, sp, #4
10041aa8:	e7e4      	b.n	10041a74 <DW1000_write_reg+0x34>
10041aaa:	230a      	movs	r3, #10
10041aac:	2201      	movs	r2, #1
10041aae:	e7fa      	b.n	10041aa6 <DW1000_write_reg+0x66>
10041ab0:	00008040 	.word	0x00008040

10041ab4 <DW1000_read_reg>:
10041ab4:	b573      	push	{r0, r1, r4, r5, r6, lr}
10041ab6:	0004      	movs	r4, r0
10041ab8:	0015      	movs	r5, r2
10041aba:	001e      	movs	r6, r3
10041abc:	9101      	str	r1, [sp, #4]
10041abe:	b672      	cpsid	i
10041ac0:	223f      	movs	r2, #63	@ 0x3f
10041ac2:	9b01      	ldr	r3, [sp, #4]
10041ac4:	4013      	ands	r3, r2
10041ac6:	9301      	str	r3, [sp, #4]
10041ac8:	8981      	ldrh	r1, [r0, #12]
10041aca:	2200      	movs	r2, #0
10041acc:	6840      	ldr	r0, [r0, #4]
10041ace:	f001 fb0e 	bl	100430ee <HAL_GPIO_WritePin>
10041ad2:	2d00      	cmp	r5, #0
10041ad4:	d018      	beq.n	10041b08 <DW1000_read_reg+0x54>
10041ad6:	9b01      	ldr	r3, [sp, #4]
10041ad8:	022d      	lsls	r5, r5, #8
10041ada:	431d      	orrs	r5, r3
10041adc:	2340      	movs	r3, #64	@ 0x40
10041ade:	432b      	orrs	r3, r5
10041ae0:	9301      	str	r3, [sp, #4]
10041ae2:	2202      	movs	r2, #2
10041ae4:	230a      	movs	r3, #10
10041ae6:	a901      	add	r1, sp, #4
10041ae8:	6820      	ldr	r0, [r4, #0]
10041aea:	f000 fc45 	bl	10042378 <SPI_write8>
10041aee:	230a      	movs	r3, #10
10041af0:	0031      	movs	r1, r6
10041af2:	9a06      	ldr	r2, [sp, #24]
10041af4:	6820      	ldr	r0, [r4, #0]
10041af6:	f000 fc8d 	bl	10042414 <SPI_read8>
10041afa:	2201      	movs	r2, #1
10041afc:	89a1      	ldrh	r1, [r4, #12]
10041afe:	6860      	ldr	r0, [r4, #4]
10041b00:	f001 faf5 	bl	100430ee <HAL_GPIO_WritePin>
10041b04:	b662      	cpsie	i
10041b06:	bd73      	pop	{r0, r1, r4, r5, r6, pc}
10041b08:	230a      	movs	r3, #10
10041b0a:	2201      	movs	r2, #1
10041b0c:	e7eb      	b.n	10041ae6 <DW1000_read_reg+0x32>

10041b0e <get_tx_timestamp_u64>:
10041b0e:	2305      	movs	r3, #5
10041b10:	b530      	push	{r4, r5, lr}
10041b12:	b085      	sub	sp, #20
10041b14:	ac02      	add	r4, sp, #8
10041b16:	2117      	movs	r1, #23
10041b18:	9300      	str	r3, [sp, #0]
10041b1a:	2200      	movs	r2, #0
10041b1c:	0023      	movs	r3, r4
10041b1e:	f7ff ffc9 	bl	10041ab4 <DW1000_read_reg>
10041b22:	2000      	movs	r0, #0
10041b24:	2304      	movs	r3, #4
10041b26:	0001      	movs	r1, r0
10041b28:	5ce5      	ldrb	r5, [r4, r3]
10041b2a:	0e02      	lsrs	r2, r0, #24
10041b2c:	0209      	lsls	r1, r1, #8
10041b2e:	0200      	lsls	r0, r0, #8
10041b30:	4328      	orrs	r0, r5
10041b32:	4311      	orrs	r1, r2
10041b34:	3b01      	subs	r3, #1
10041b36:	d2f7      	bcs.n	10041b28 <get_tx_timestamp_u64+0x1a>
10041b38:	b005      	add	sp, #20
10041b3a:	bd30      	pop	{r4, r5, pc}

10041b3c <get_rx_timestamp_u64>:
10041b3c:	2305      	movs	r3, #5
10041b3e:	b530      	push	{r4, r5, lr}
10041b40:	b085      	sub	sp, #20
10041b42:	ac02      	add	r4, sp, #8
10041b44:	2115      	movs	r1, #21
10041b46:	9300      	str	r3, [sp, #0]
10041b48:	2200      	movs	r2, #0
10041b4a:	0023      	movs	r3, r4
10041b4c:	f7ff ffb2 	bl	10041ab4 <DW1000_read_reg>
10041b50:	2000      	movs	r0, #0
10041b52:	2304      	movs	r3, #4
10041b54:	0001      	movs	r1, r0
10041b56:	5ce5      	ldrb	r5, [r4, r3]
10041b58:	0e02      	lsrs	r2, r0, #24
10041b5a:	0209      	lsls	r1, r1, #8
10041b5c:	0200      	lsls	r0, r0, #8
10041b5e:	4328      	orrs	r0, r5
10041b60:	4311      	orrs	r1, r2
10041b62:	3b01      	subs	r3, #1
10041b64:	d2f7      	bcs.n	10041b56 <get_rx_timestamp_u64+0x1a>
10041b66:	b005      	add	sp, #20
10041b68:	bd30      	pop	{r4, r5, pc}
	...

10041b6c <DW1000_init>:
10041b6c:	b5f0      	push	{r4, r5, r6, r7, lr}
10041b6e:	0004      	movs	r4, r0
10041b70:	b085      	sub	sp, #20
10041b72:	89c1      	ldrh	r1, [r0, #14]
10041b74:	2200      	movs	r2, #0
10041b76:	6880      	ldr	r0, [r0, #8]
10041b78:	f001 fab9 	bl	100430ee <HAL_GPIO_WritePin>
10041b7c:	2001      	movs	r0, #1
10041b7e:	f001 f9b9 	bl	10042ef4 <HAL_Delay>
10041b82:	2201      	movs	r2, #1
10041b84:	89e1      	ldrh	r1, [r4, #14]
10041b86:	68a0      	ldr	r0, [r4, #8]
10041b88:	f001 fab1 	bl	100430ee <HAL_GPIO_WritePin>
10041b8c:	2200      	movs	r2, #0
10041b8e:	2304      	movs	r3, #4
10041b90:	0011      	movs	r1, r2
10041b92:	9300      	str	r3, [sp, #0]
10041b94:	0020      	movs	r0, r4
10041b96:	ab03      	add	r3, sp, #12
10041b98:	f7ff ff8c 	bl	10041ab4 <DW1000_read_reg>
10041b9c:	4b88      	ldr	r3, [pc, #544]	@ (10041dc0 <DW1000_init+0x254>)
10041b9e:	9a03      	ldr	r2, [sp, #12]
10041ba0:	429a      	cmp	r2, r3
10041ba2:	d000      	beq.n	10041ba6 <DW1000_init+0x3a>
10041ba4:	e7fe      	b.n	10041ba4 <DW1000_init+0x38>
10041ba6:	2602      	movs	r6, #2
10041ba8:	2501      	movs	r5, #1
10041baa:	2700      	movs	r7, #0
10041bac:	2200      	movs	r2, #0
10041bae:	2136      	movs	r1, #54	@ 0x36
10041bb0:	0020      	movs	r0, r4
10041bb2:	ab03      	add	r3, sp, #12
10041bb4:	9600      	str	r6, [sp, #0]
10041bb6:	f7ff ff7d 	bl	10041ab4 <DW1000_read_reg>
10041bba:	9b03      	ldr	r3, [sp, #12]
10041bbc:	4a81      	ldr	r2, [pc, #516]	@ (10041dc4 <DW1000_init+0x258>)
10041bbe:	2136      	movs	r1, #54	@ 0x36
10041bc0:	4013      	ands	r3, r2
10041bc2:	432b      	orrs	r3, r5
10041bc4:	2200      	movs	r2, #0
10041bc6:	0020      	movs	r0, r4
10041bc8:	9303      	str	r3, [sp, #12]
10041bca:	9600      	str	r6, [sp, #0]
10041bcc:	ab03      	add	r3, sp, #12
10041bce:	f7ff ff37 	bl	10041a40 <DW1000_write_reg>
10041bd2:	2204      	movs	r2, #4
10041bd4:	2136      	movs	r1, #54	@ 0x36
10041bd6:	0020      	movs	r0, r4
10041bd8:	ab03      	add	r3, sp, #12
10041bda:	9600      	str	r6, [sp, #0]
10041bdc:	9703      	str	r7, [sp, #12]
10041bde:	f7ff ff2f 	bl	10041a40 <DW1000_write_reg>
10041be2:	003a      	movs	r2, r7
10041be4:	212c      	movs	r1, #44	@ 0x2c
10041be6:	0020      	movs	r0, r4
10041be8:	ab03      	add	r3, sp, #12
10041bea:	9600      	str	r6, [sp, #0]
10041bec:	9703      	str	r7, [sp, #12]
10041bee:	f7ff ff27 	bl	10041a40 <DW1000_write_reg>
10041bf2:	2206      	movs	r2, #6
10041bf4:	212c      	movs	r1, #44	@ 0x2c
10041bf6:	0020      	movs	r0, r4
10041bf8:	ab03      	add	r3, sp, #12
10041bfa:	9500      	str	r5, [sp, #0]
10041bfc:	f7ff ff20 	bl	10041a40 <DW1000_write_reg>
10041c00:	0032      	movs	r2, r6
10041c02:	212c      	movs	r1, #44	@ 0x2c
10041c04:	0020      	movs	r0, r4
10041c06:	ab03      	add	r3, sp, #12
10041c08:	9500      	str	r5, [sp, #0]
10041c0a:	f7ff ff19 	bl	10041a40 <DW1000_write_reg>
10041c0e:	0032      	movs	r2, r6
10041c10:	212c      	movs	r1, #44	@ 0x2c
10041c12:	0020      	movs	r0, r4
10041c14:	ab03      	add	r3, sp, #12
10041c16:	9500      	str	r5, [sp, #0]
10041c18:	9603      	str	r6, [sp, #12]
10041c1a:	f7ff ff11 	bl	10041a40 <DW1000_write_reg>
10041c1e:	2203      	movs	r2, #3
10041c20:	2136      	movs	r1, #54	@ 0x36
10041c22:	ab03      	add	r3, sp, #12
10041c24:	0020      	movs	r0, r4
10041c26:	9500      	str	r5, [sp, #0]
10041c28:	9703      	str	r7, [sp, #12]
10041c2a:	f7ff ff09 	bl	10041a40 <DW1000_write_reg>
10041c2e:	0028      	movs	r0, r5
10041c30:	f001 f960 	bl	10042ef4 <HAL_Delay>
10041c34:	23f0      	movs	r3, #240	@ 0xf0
10041c36:	2203      	movs	r2, #3
10041c38:	2136      	movs	r1, #54	@ 0x36
10041c3a:	0020      	movs	r0, r4
10041c3c:	9303      	str	r3, [sp, #12]
10041c3e:	9500      	str	r5, [sp, #0]
10041c40:	ab03      	add	r3, sp, #12
10041c42:	f7ff fefd 	bl	10041a40 <DW1000_write_reg>
10041c46:	003a      	movs	r2, r7
10041c48:	2136      	movs	r1, #54	@ 0x36
10041c4a:	0020      	movs	r0, r4
10041c4c:	ab03      	add	r3, sp, #12
10041c4e:	9600      	str	r6, [sp, #0]
10041c50:	f7ff ff30 	bl	10041ab4 <DW1000_read_reg>
10041c54:	9b03      	ldr	r3, [sp, #12]
10041c56:	4a5b      	ldr	r2, [pc, #364]	@ (10041dc4 <DW1000_init+0x258>)
10041c58:	2136      	movs	r1, #54	@ 0x36
10041c5a:	4013      	ands	r3, r2
10041c5c:	432b      	orrs	r3, r5
10041c5e:	003a      	movs	r2, r7
10041c60:	0020      	movs	r0, r4
10041c62:	9303      	str	r3, [sp, #12]
10041c64:	9600      	str	r6, [sp, #0]
10041c66:	ab03      	add	r3, sp, #12
10041c68:	f7ff feea 	bl	10041a40 <DW1000_write_reg>
10041c6c:	2304      	movs	r3, #4
10041c6e:	aa03      	add	r2, sp, #12
10041c70:	2124      	movs	r1, #36	@ 0x24
10041c72:	0020      	movs	r0, r4
10041c74:	9303      	str	r3, [sp, #12]
10041c76:	9500      	str	r5, [sp, #0]
10041c78:	0013      	movs	r3, r2
10041c7a:	003a      	movs	r2, r7
10041c7c:	f7ff fee0 	bl	10041a40 <DW1000_write_reg>
10041c80:	2304      	movs	r3, #4
10041c82:	aa03      	add	r2, sp, #12
10041c84:	212d      	movs	r1, #45	@ 0x2d
10041c86:	0020      	movs	r0, r4
10041c88:	9303      	str	r3, [sp, #12]
10041c8a:	9600      	str	r6, [sp, #0]
10041c8c:	0013      	movs	r3, r2
10041c8e:	2204      	movs	r2, #4
10041c90:	f7ff fed6 	bl	10041a40 <DW1000_write_reg>
10041c94:	2303      	movs	r3, #3
10041c96:	aa03      	add	r2, sp, #12
10041c98:	212d      	movs	r1, #45	@ 0x2d
10041c9a:	0020      	movs	r0, r4
10041c9c:	9303      	str	r3, [sp, #12]
10041c9e:	9500      	str	r5, [sp, #0]
10041ca0:	0013      	movs	r3, r2
10041ca2:	2206      	movs	r2, #6
10041ca4:	f7ff fecc 	bl	10041a40 <DW1000_write_reg>
10041ca8:	aa03      	add	r2, sp, #12
10041caa:	0013      	movs	r3, r2
10041cac:	212d      	movs	r1, #45	@ 0x2d
10041cae:	2206      	movs	r2, #6
10041cb0:	0020      	movs	r0, r4
10041cb2:	9500      	str	r5, [sp, #0]
10041cb4:	9703      	str	r7, [sp, #12]
10041cb6:	f7ff fec3 	bl	10041a40 <DW1000_write_reg>
10041cba:	2304      	movs	r3, #4
10041cbc:	220a      	movs	r2, #10
10041cbe:	9300      	str	r3, [sp, #0]
10041cc0:	212d      	movs	r1, #45	@ 0x2d
10041cc2:	ab03      	add	r3, sp, #12
10041cc4:	0020      	movs	r0, r4
10041cc6:	f7ff fef5 	bl	10041ab4 <DW1000_read_reg>
10041cca:	9b03      	ldr	r3, [sp, #12]
10041ccc:	b2db      	uxtb	r3, r3
10041cce:	42bb      	cmp	r3, r7
10041cd0:	d007      	beq.n	10041ce2 <DW1000_init+0x176>
10041cd2:	2212      	movs	r2, #18
10041cd4:	212d      	movs	r1, #45	@ 0x2d
10041cd6:	0020      	movs	r0, r4
10041cd8:	9500      	str	r5, [sp, #0]
10041cda:	ab03      	add	r3, sp, #12
10041cdc:	9603      	str	r6, [sp, #12]
10041cde:	f7ff feaf 	bl	10041a40 <DW1000_write_reg>
10041ce2:	231e      	movs	r3, #30
10041ce4:	9303      	str	r3, [sp, #12]
10041ce6:	3b1c      	subs	r3, #28
10041ce8:	2204      	movs	r2, #4
10041cea:	212d      	movs	r1, #45	@ 0x2d
10041cec:	0020      	movs	r0, r4
10041cee:	9300      	str	r3, [sp, #0]
10041cf0:	ab03      	add	r3, sp, #12
10041cf2:	f7ff fea5 	bl	10041a40 <DW1000_write_reg>
10041cf6:	2501      	movs	r5, #1
10041cf8:	2303      	movs	r3, #3
10041cfa:	2206      	movs	r2, #6
10041cfc:	212d      	movs	r1, #45	@ 0x2d
10041cfe:	0020      	movs	r0, r4
10041d00:	9303      	str	r3, [sp, #12]
10041d02:	9500      	str	r5, [sp, #0]
10041d04:	ab03      	add	r3, sp, #12
10041d06:	f7ff fe9b 	bl	10041a40 <DW1000_write_reg>
10041d0a:	2300      	movs	r3, #0
10041d0c:	2206      	movs	r2, #6
10041d0e:	212d      	movs	r1, #45	@ 0x2d
10041d10:	0020      	movs	r0, r4
10041d12:	9303      	str	r3, [sp, #12]
10041d14:	9500      	str	r5, [sp, #0]
10041d16:	ab03      	add	r3, sp, #12
10041d18:	f7ff fe92 	bl	10041a40 <DW1000_write_reg>
10041d1c:	2304      	movs	r3, #4
10041d1e:	220a      	movs	r2, #10
10041d20:	9300      	str	r3, [sp, #0]
10041d22:	212d      	movs	r1, #45	@ 0x2d
10041d24:	ab03      	add	r3, sp, #12
10041d26:	0020      	movs	r0, r4
10041d28:	f7ff fec4 	bl	10041ab4 <DW1000_read_reg>
10041d2c:	9b03      	ldr	r3, [sp, #12]
10041d2e:	2210      	movs	r2, #16
10041d30:	06d9      	lsls	r1, r3, #27
10041d32:	d000      	beq.n	10041d36 <DW1000_init+0x1ca>
10041d34:	b29a      	uxth	r2, r3
10041d36:	211f      	movs	r1, #31
10041d38:	230b      	movs	r3, #11
10041d3a:	2601      	movs	r6, #1
10041d3c:	2502      	movs	r5, #2
10041d3e:	9203      	str	r2, [sp, #12]
10041d40:	400a      	ands	r2, r1
10041d42:	3141      	adds	r1, #65	@ 0x41
10041d44:	446b      	add	r3, sp
10041d46:	430a      	orrs	r2, r1
10041d48:	701a      	strb	r2, [r3, #0]
10041d4a:	0020      	movs	r0, r4
10041d4c:	220e      	movs	r2, #14
10041d4e:	9600      	str	r6, [sp, #0]
10041d50:	3935      	subs	r1, #53	@ 0x35
10041d52:	f7ff fe75 	bl	10041a40 <DW1000_write_reg>
10041d56:	4b1c      	ldr	r3, [pc, #112]	@ (10041dc8 <DW1000_init+0x25c>)
10041d58:	0020      	movs	r0, r4
10041d5a:	9303      	str	r3, [sp, #12]
10041d5c:	2200      	movs	r2, #0
10041d5e:	ab03      	add	r3, sp, #12
10041d60:	2136      	movs	r1, #54	@ 0x36
10041d62:	9500      	str	r5, [sp, #0]
10041d64:	f7ff fe6c 	bl	10041a40 <DW1000_write_reg>
10041d68:	2380      	movs	r3, #128	@ 0x80
10041d6a:	021b      	lsls	r3, r3, #8
10041d6c:	2206      	movs	r2, #6
10041d6e:	212d      	movs	r1, #45	@ 0x2d
10041d70:	0020      	movs	r0, r4
10041d72:	9303      	str	r3, [sp, #12]
10041d74:	9500      	str	r5, [sp, #0]
10041d76:	ab03      	add	r3, sp, #12
10041d78:	f7ff fe62 	bl	10041a40 <DW1000_write_reg>
10041d7c:	0030      	movs	r0, r6
10041d7e:	f001 f8b9 	bl	10042ef4 <HAL_Delay>
10041d82:	0020      	movs	r0, r4
10041d84:	ab03      	add	r3, sp, #12
10041d86:	2200      	movs	r2, #0
10041d88:	2136      	movs	r1, #54	@ 0x36
10041d8a:	9500      	str	r5, [sp, #0]
10041d8c:	f7ff fe92 	bl	10041ab4 <DW1000_read_reg>
10041d90:	22fe      	movs	r2, #254	@ 0xfe
10041d92:	9b03      	ldr	r3, [sp, #12]
10041d94:	0212      	lsls	r2, r2, #8
10041d96:	4013      	ands	r3, r2
10041d98:	0020      	movs	r0, r4
10041d9a:	9303      	str	r3, [sp, #12]
10041d9c:	2200      	movs	r2, #0
10041d9e:	ab03      	add	r3, sp, #12
10041da0:	2136      	movs	r1, #54	@ 0x36
10041da2:	9500      	str	r5, [sp, #0]
10041da4:	f7ff fe4c 	bl	10041a40 <DW1000_write_reg>
10041da8:	2300      	movs	r3, #0
10041daa:	220a      	movs	r2, #10
10041dac:	9303      	str	r3, [sp, #12]
10041dae:	212c      	movs	r1, #44	@ 0x2c
10041db0:	0020      	movs	r0, r4
10041db2:	9600      	str	r6, [sp, #0]
10041db4:	ab03      	add	r3, sp, #12
10041db6:	f7ff fe43 	bl	10041a40 <DW1000_write_reg>
10041dba:	b005      	add	sp, #20
10041dbc:	bdf0      	pop	{r4, r5, r6, r7, pc}
10041dbe:	46c0      	nop			@ (mov r8, r8)
10041dc0:	deca0130 	.word	0xdeca0130
10041dc4:	0000fffc 	.word	0x0000fffc
10041dc8:	00000301 	.word	0x00000301

10041dcc <DW1000_config>:
10041dcc:	b5f0      	push	{r4, r5, r6, r7, lr}
10041dce:	250a      	movs	r5, #10
10041dd0:	000e      	movs	r6, r1
10041dd2:	2104      	movs	r1, #4
10041dd4:	2200      	movs	r2, #0
10041dd6:	b089      	sub	sp, #36	@ 0x24
10041dd8:	4bb0      	ldr	r3, [pc, #704]	@ (1004209c <DW1000_config+0x2d0>)
10041dda:	446d      	add	r5, sp
10041ddc:	802b      	strh	r3, [r5, #0]
10041dde:	ab04      	add	r3, sp, #16
10041de0:	9100      	str	r1, [sp, #0]
10041de2:	9203      	str	r2, [sp, #12]
10041de4:	0004      	movs	r4, r0
10041de6:	f7ff fe65 	bl	10041ab4 <DW1000_read_reg>
10041dea:	79f2      	ldrb	r2, [r6, #7]
10041dec:	9b04      	ldr	r3, [sp, #16]
10041dee:	2a00      	cmp	r2, #0
10041df0:	d000      	beq.n	10041df4 <DW1000_config+0x28>
10041df2:	e14d      	b.n	10042090 <DW1000_config+0x2c4>
10041df4:	2280      	movs	r2, #128	@ 0x80
10041df6:	03d2      	lsls	r2, r2, #15
10041df8:	4313      	orrs	r3, r2
10041dfa:	9304      	str	r3, [sp, #16]
10041dfc:	882b      	ldrh	r3, [r5, #0]
10041dfe:	08db      	lsrs	r3, r3, #3
10041e00:	802b      	strh	r3, [r5, #0]
10041e02:	22c0      	movs	r2, #192	@ 0xc0
10041e04:	7a33      	ldrb	r3, [r6, #8]
10041e06:	0292      	lsls	r2, r2, #10
10041e08:	041b      	lsls	r3, r3, #16
10041e0a:	49a5      	ldr	r1, [pc, #660]	@ (100420a0 <DW1000_config+0x2d4>)
10041e0c:	4013      	ands	r3, r2
10041e0e:	9a04      	ldr	r2, [sp, #16]
10041e10:	2702      	movs	r7, #2
10041e12:	400a      	ands	r2, r1
10041e14:	2104      	movs	r1, #4
10041e16:	4313      	orrs	r3, r2
10041e18:	0020      	movs	r0, r4
10041e1a:	2200      	movs	r2, #0
10041e1c:	9304      	str	r3, [sp, #16]
10041e1e:	9100      	str	r1, [sp, #0]
10041e20:	ab04      	add	r3, sp, #16
10041e22:	f7ff fe0d 	bl	10041a40 <DW1000_write_reg>
10041e26:	002b      	movs	r3, r5
10041e28:	212e      	movs	r1, #46	@ 0x2e
10041e2a:	0020      	movs	r0, r4
10041e2c:	4a9d      	ldr	r2, [pc, #628]	@ (100420a4 <DW1000_config+0x2d8>)
10041e2e:	9700      	str	r7, [sp, #0]
10041e30:	f7ff fe06 	bl	10041a40 <DW1000_write_reg>
10041e34:	236d      	movs	r3, #109	@ 0x6d
10041e36:	9303      	str	r3, [sp, #12]
10041e38:	3b6c      	subs	r3, #108	@ 0x6c
10041e3a:	9300      	str	r3, [sp, #0]
10041e3c:	212e      	movs	r1, #46	@ 0x2e
10041e3e:	ab03      	add	r3, sp, #12
10041e40:	0020      	movs	r0, r4
10041e42:	4a99      	ldr	r2, [pc, #612]	@ (100420a8 <DW1000_config+0x2dc>)
10041e44:	f7ff fdfc 	bl	10041a40 <DW1000_write_reg>
10041e48:	4b98      	ldr	r3, [pc, #608]	@ (100420ac <DW1000_config+0x2e0>)
10041e4a:	785b      	ldrb	r3, [r3, #1]
10041e4c:	2b01      	cmp	r3, #1
10041e4e:	d100      	bne.n	10041e52 <DW1000_config+0x86>
10041e50:	e122      	b.n	10042098 <DW1000_config+0x2cc>
10041e52:	4b97      	ldr	r3, [pc, #604]	@ (100420b0 <DW1000_config+0x2e4>)
10041e54:	2504      	movs	r5, #4
10041e56:	212e      	movs	r1, #46	@ 0x2e
10041e58:	0020      	movs	r0, r4
10041e5a:	4a96      	ldr	r2, [pc, #600]	@ (100420b4 <DW1000_config+0x2e8>)
10041e5c:	9303      	str	r3, [sp, #12]
10041e5e:	9700      	str	r7, [sp, #0]
10041e60:	ab03      	add	r3, sp, #12
10041e62:	f7ff fded 	bl	10041a40 <DW1000_write_reg>
10041e66:	4b94      	ldr	r3, [pc, #592]	@ (100420b8 <DW1000_config+0x2ec>)
10041e68:	2207      	movs	r2, #7
10041e6a:	212b      	movs	r1, #43	@ 0x2b
10041e6c:	0020      	movs	r0, r4
10041e6e:	9303      	str	r3, [sp, #12]
10041e70:	9500      	str	r5, [sp, #0]
10041e72:	ab03      	add	r3, sp, #12
10041e74:	f7ff fde4 	bl	10041a40 <DW1000_write_reg>
10041e78:	2701      	movs	r7, #1
10041e7a:	2326      	movs	r3, #38	@ 0x26
10041e7c:	220b      	movs	r2, #11
10041e7e:	212b      	movs	r1, #43	@ 0x2b
10041e80:	0020      	movs	r0, r4
10041e82:	9303      	str	r3, [sp, #12]
10041e84:	9700      	str	r7, [sp, #0]
10041e86:	ab03      	add	r3, sp, #12
10041e88:	f7ff fdda 	bl	10041a40 <DW1000_write_reg>
10041e8c:	23d8      	movs	r3, #216	@ 0xd8
10041e8e:	220b      	movs	r2, #11
10041e90:	2128      	movs	r1, #40	@ 0x28
10041e92:	0020      	movs	r0, r4
10041e94:	9303      	str	r3, [sp, #12]
10041e96:	9700      	str	r7, [sp, #0]
10041e98:	ab03      	add	r3, sp, #12
10041e9a:	f7ff fdd1 	bl	10041a40 <DW1000_write_reg>
10041e9e:	4b87      	ldr	r3, [pc, #540]	@ (100420bc <DW1000_config+0x2f0>)
10041ea0:	220c      	movs	r2, #12
10041ea2:	2128      	movs	r1, #40	@ 0x28
10041ea4:	0020      	movs	r0, r4
10041ea6:	9303      	str	r3, [sp, #12]
10041ea8:	9500      	str	r5, [sp, #0]
10041eaa:	ab03      	add	r3, sp, #12
10041eac:	f7ff fdc8 	bl	10041a40 <DW1000_write_reg>
10041eb0:	2316      	movs	r3, #22
10041eb2:	19ff      	adds	r7, r7, r7
10041eb4:	003a      	movs	r2, r7
10041eb6:	2127      	movs	r1, #39	@ 0x27
10041eb8:	0020      	movs	r0, r4
10041eba:	9303      	str	r3, [sp, #12]
10041ebc:	9700      	str	r7, [sp, #0]
10041ebe:	ab03      	add	r3, sp, #12
10041ec0:	f7ff fdbe 	bl	10041a40 <DW1000_write_reg>
10041ec4:	238d      	movs	r3, #141	@ 0x8d
10041ec6:	002a      	movs	r2, r5
10041ec8:	2127      	movs	r1, #39	@ 0x27
10041eca:	0020      	movs	r0, r4
10041ecc:	9303      	str	r3, [sp, #12]
10041ece:	9700      	str	r7, [sp, #0]
10041ed0:	ab03      	add	r3, sp, #12
10041ed2:	f7ff fdb5 	bl	10041a40 <DW1000_write_reg>
10041ed6:	2364      	movs	r3, #100	@ 0x64
10041ed8:	2206      	movs	r2, #6
10041eda:	2127      	movs	r1, #39	@ 0x27
10041edc:	0020      	movs	r0, r4
10041ede:	9303      	str	r3, [sp, #12]
10041ee0:	9700      	str	r7, [sp, #0]
10041ee2:	ab03      	add	r3, sp, #12
10041ee4:	f7ff fdac 	bl	10041a40 <DW1000_write_reg>
10041ee8:	4b75      	ldr	r3, [pc, #468]	@ (100420c0 <DW1000_config+0x2f4>)
10041eea:	2208      	movs	r2, #8
10041eec:	9303      	str	r3, [sp, #12]
10041eee:	2127      	movs	r1, #39	@ 0x27
10041ef0:	ab03      	add	r3, sp, #12
10041ef2:	0020      	movs	r0, r4
10041ef4:	9500      	str	r5, [sp, #0]
10041ef6:	f7ff fda3 	bl	10041a40 <DW1000_write_reg>
10041efa:	8973      	ldrh	r3, [r6, #10]
10041efc:	2b00      	cmp	r3, #0
10041efe:	d101      	bne.n	10041f04 <DW1000_config+0x138>
10041f00:	4b70      	ldr	r3, [pc, #448]	@ (100420c4 <DW1000_config+0x2f8>)
10041f02:	8173      	strh	r3, [r6, #10]
10041f04:	2702      	movs	r7, #2
10041f06:	2504      	movs	r5, #4
10041f08:	8973      	ldrh	r3, [r6, #10]
10041f0a:	2220      	movs	r2, #32
10041f0c:	2127      	movs	r1, #39	@ 0x27
10041f0e:	0020      	movs	r0, r4
10041f10:	9303      	str	r3, [sp, #12]
10041f12:	9700      	str	r7, [sp, #0]
10041f14:	ab03      	add	r3, sp, #12
10041f16:	f7ff fd93 	bl	10041a40 <DW1000_write_reg>
10041f1a:	4b6b      	ldr	r3, [pc, #428]	@ (100420c8 <DW1000_config+0x2fc>)
10041f1c:	220c      	movs	r2, #12
10041f1e:	2123      	movs	r1, #35	@ 0x23
10041f20:	0020      	movs	r0, r4
10041f22:	9303      	str	r3, [sp, #12]
10041f24:	9500      	str	r5, [sp, #0]
10041f26:	ab03      	add	r3, sp, #12
10041f28:	f7ff fd8a 	bl	10041a40 <DW1000_write_reg>
10041f2c:	4b67      	ldr	r3, [pc, #412]	@ (100420cc <DW1000_config+0x300>)
10041f2e:	002a      	movs	r2, r5
10041f30:	2123      	movs	r1, #35	@ 0x23
10041f32:	9303      	str	r3, [sp, #12]
10041f34:	0020      	movs	r0, r4
10041f36:	9700      	str	r7, [sp, #0]
10041f38:	ab03      	add	r3, sp, #12
10041f3a:	f7ff fd81 	bl	10041a40 <DW1000_write_reg>
10041f3e:	2200      	movs	r2, #0
10041f40:	79b1      	ldrb	r1, [r6, #6]
10041f42:	4291      	cmp	r1, r2
10041f44:	d00a      	beq.n	10041f5c <DW1000_config+0x190>
10041f46:	2340      	movs	r3, #64	@ 0x40
10041f48:	3d03      	subs	r5, #3
10041f4a:	2121      	movs	r1, #33	@ 0x21
10041f4c:	9303      	str	r3, [sp, #12]
10041f4e:	0020      	movs	r0, r4
10041f50:	9500      	str	r5, [sp, #0]
10041f52:	ab03      	add	r3, sp, #12
10041f54:	f7ff fd74 	bl	10041a40 <DW1000_write_reg>
10041f58:	002a      	movs	r2, r5
10041f5a:	2103      	movs	r1, #3
10041f5c:	250f      	movs	r5, #15
10041f5e:	7830      	ldrb	r0, [r6, #0]
10041f60:	7973      	ldrb	r3, [r6, #5]
10041f62:	4005      	ands	r5, r0
10041f64:	06db      	lsls	r3, r3, #27
10041f66:	432b      	orrs	r3, r5
10041f68:	25ff      	movs	r5, #255	@ 0xff
10041f6a:	0100      	lsls	r0, r0, #4
10041f6c:	4028      	ands	r0, r5
10041f6e:	25c0      	movs	r5, #192	@ 0xc0
10041f70:	4303      	orrs	r3, r0
10041f72:	7870      	ldrb	r0, [r6, #1]
10041f74:	032d      	lsls	r5, r5, #12
10041f76:	0480      	lsls	r0, r0, #18
10041f78:	4028      	ands	r0, r5
10041f7a:	25f8      	movs	r5, #248	@ 0xf8
10041f7c:	4303      	orrs	r3, r0
10041f7e:	7930      	ldrb	r0, [r6, #4]
10041f80:	04ed      	lsls	r5, r5, #19
10041f82:	0580      	lsls	r0, r0, #22
10041f84:	4028      	ands	r0, r5
10041f86:	2504      	movs	r5, #4
10041f88:	4303      	orrs	r3, r0
10041f8a:	0509      	lsls	r1, r1, #20
10041f8c:	430b      	orrs	r3, r1
10041f8e:	0452      	lsls	r2, r2, #17
10041f90:	4313      	orrs	r3, r2
10041f92:	211f      	movs	r1, #31
10041f94:	2200      	movs	r2, #0
10041f96:	0020      	movs	r0, r4
10041f98:	9305      	str	r3, [sp, #20]
10041f9a:	9500      	str	r5, [sp, #0]
10041f9c:	ab05      	add	r3, sp, #20
10041f9e:	f7ff fd4f 	bl	10041a40 <DW1000_write_reg>
10041fa2:	7871      	ldrb	r1, [r6, #1]
10041fa4:	78b2      	ldrb	r2, [r6, #2]
10041fa6:	4b4a      	ldr	r3, [pc, #296]	@ (100420d0 <DW1000_config+0x304>)
10041fa8:	430a      	orrs	r2, r1
10041faa:	79f1      	ldrb	r1, [r6, #7]
10041fac:	0412      	lsls	r2, r2, #16
10041fae:	0349      	lsls	r1, r1, #13
10041fb0:	430a      	orrs	r2, r1
10041fb2:	601a      	str	r2, [r3, #0]
10041fb4:	2108      	movs	r1, #8
10041fb6:	2200      	movs	r2, #0
10041fb8:	0020      	movs	r0, r4
10041fba:	9500      	str	r5, [sp, #0]
10041fbc:	f7ff fd40 	bl	10041a40 <DW1000_write_reg>
10041fc0:	2601      	movs	r6, #1
10041fc2:	2342      	movs	r3, #66	@ 0x42
10041fc4:	2702      	movs	r7, #2
10041fc6:	2200      	movs	r2, #0
10041fc8:	210d      	movs	r1, #13
10041fca:	0020      	movs	r0, r4
10041fcc:	9303      	str	r3, [sp, #12]
10041fce:	9600      	str	r6, [sp, #0]
10041fd0:	ab03      	add	r3, sp, #12
10041fd2:	f7ff fd35 	bl	10041a40 <DW1000_write_reg>
10041fd6:	4b3f      	ldr	r3, [pc, #252]	@ (100420d4 <DW1000_config+0x308>)
10041fd8:	aa03      	add	r2, sp, #12
10041fda:	212e      	movs	r1, #46	@ 0x2e
10041fdc:	0020      	movs	r0, r4
10041fde:	9303      	str	r3, [sp, #12]
10041fe0:	9700      	str	r7, [sp, #0]
10041fe2:	0013      	movs	r3, r2
10041fe4:	4a3c      	ldr	r2, [pc, #240]	@ (100420d8 <DW1000_config+0x30c>)
10041fe6:	f7ff fd2b 	bl	10041a40 <DW1000_write_reg>
10041fea:	4b3a      	ldr	r3, [pc, #232]	@ (100420d4 <DW1000_config+0x308>)
10041fec:	2200      	movs	r2, #0
10041fee:	9303      	str	r3, [sp, #12]
10041ff0:	212e      	movs	r1, #46	@ 0x2e
10041ff2:	ab03      	add	r3, sp, #12
10041ff4:	0020      	movs	r0, r4
10041ff6:	9700      	str	r7, [sp, #0]
10041ff8:	f7ff fd22 	bl	10041a40 <DW1000_write_reg>
10041ffc:	7c23      	ldrb	r3, [r4, #16]
10041ffe:	4233      	tst	r3, r6
10042000:	d02f      	beq.n	10042062 <DW1000_config+0x296>
10042002:	2200      	movs	r2, #0
10042004:	211a      	movs	r1, #26
10042006:	0020      	movs	r0, r4
10042008:	ab06      	add	r3, sp, #24
1004200a:	9500      	str	r5, [sp, #0]
1004200c:	f7ff fd52 	bl	10041ab4 <DW1000_read_reg>
10042010:	2296      	movs	r2, #150	@ 0x96
10042012:	9b06      	ldr	r3, [sp, #24]
10042014:	0052      	lsls	r2, r2, #1
10042016:	0d1b      	lsrs	r3, r3, #20
10042018:	051b      	lsls	r3, r3, #20
1004201a:	4313      	orrs	r3, r2
1004201c:	211a      	movs	r1, #26
1004201e:	2200      	movs	r2, #0
10042020:	0020      	movs	r0, r4
10042022:	9306      	str	r3, [sp, #24]
10042024:	9500      	str	r5, [sp, #0]
10042026:	ab06      	add	r3, sp, #24
10042028:	f7ff fd0a 	bl	10041a40 <DW1000_write_reg>
1004202c:	4b2b      	ldr	r3, [pc, #172]	@ (100420dc <DW1000_config+0x310>)
1004202e:	2200      	movs	r2, #0
10042030:	210c      	movs	r1, #12
10042032:	0020      	movs	r0, r4
10042034:	9307      	str	r3, [sp, #28]
10042036:	9700      	str	r7, [sp, #0]
10042038:	ab07      	add	r3, sp, #28
1004203a:	f7ff fd01 	bl	10041a40 <DW1000_write_reg>
1004203e:	2203      	movs	r2, #3
10042040:	0029      	movs	r1, r5
10042042:	0020      	movs	r0, r4
10042044:	ab03      	add	r3, sp, #12
10042046:	9600      	str	r6, [sp, #0]
10042048:	f7ff fd34 	bl	10041ab4 <DW1000_read_reg>
1004204c:	2310      	movs	r3, #16
1004204e:	9a03      	ldr	r2, [sp, #12]
10042050:	0029      	movs	r1, r5
10042052:	4313      	orrs	r3, r2
10042054:	9303      	str	r3, [sp, #12]
10042056:	2203      	movs	r2, #3
10042058:	0020      	movs	r0, r4
1004205a:	9600      	str	r6, [sp, #0]
1004205c:	ab03      	add	r3, sp, #12
1004205e:	f7ff fcef 	bl	10041a40 <DW1000_write_reg>
10042062:	2320      	movs	r3, #32
10042064:	9303      	str	r3, [sp, #12]
10042066:	3b1e      	subs	r3, #30
10042068:	0020      	movs	r0, r4
1004206a:	9300      	str	r3, [sp, #0]
1004206c:	2224      	movs	r2, #36	@ 0x24
1004206e:	ab03      	add	r3, sp, #12
10042070:	2127      	movs	r1, #39	@ 0x27
10042072:	f7ff fce5 	bl	10041a40 <DW1000_write_reg>
10042076:	2304      	movs	r3, #4
10042078:	0020      	movs	r0, r4
1004207a:	9300      	str	r3, [sp, #0]
1004207c:	2200      	movs	r2, #0
1004207e:	210f      	movs	r1, #15
10042080:	ab07      	add	r3, sp, #28
10042082:	f7ff fd17 	bl	10041ab4 <DW1000_read_reg>
10042086:	9807      	ldr	r0, [sp, #28]
10042088:	0780      	lsls	r0, r0, #30
1004208a:	0fc0      	lsrs	r0, r0, #31
1004208c:	b009      	add	sp, #36	@ 0x24
1004208e:	bdf0      	pop	{r4, r5, r6, r7, pc}
10042090:	4a13      	ldr	r2, [pc, #76]	@ (100420e0 <DW1000_config+0x314>)
10042092:	4013      	ands	r3, r2
10042094:	9304      	str	r3, [sp, #16]
10042096:	e6b4      	b.n	10041e02 <DW1000_config+0x36>
10042098:	4b12      	ldr	r3, [pc, #72]	@ (100420e4 <DW1000_config+0x318>)
1004209a:	e6db      	b.n	10041e54 <DW1000_config+0x88>
1004209c:	000028f4 	.word	0x000028f4
100420a0:	fffcffff 	.word	0xfffcffff
100420a4:	00002804 	.word	0x00002804
100420a8:	00000806 	.word	0x00000806
100420ac:	200009a6 	.word	0x200009a6
100420b0:	00000607 	.word	0x00000607
100420b4:	00001806 	.word	0x00001806
100420b8:	08400508 	.word	0x08400508
100420bc:	00045ca0 	.word	0x00045ca0
100420c0:	353b015e 	.word	0x353b015e
100420c4:	00001041 	.word	0x00001041
100420c8:	2502a907 	.word	0x2502a907
100420cc:	0000889b 	.word	0x0000889b
100420d0:	200001b8 	.word	0x200001b8
100420d4:	00004034 	.word	0x00004034
100420d8:	00001804 	.word	0x00001804
100420dc:	00001388 	.word	0x00001388
100420e0:	ffbfffff 	.word	0xffbfffff
100420e4:	00001607 	.word	0x00001607

100420e8 <DW1000_initiator>:
100420e8:	b5f0      	push	{r4, r5, r6, r7, lr}
100420ea:	4a91      	ldr	r2, [pc, #580]	@ (10042330 <DW1000_initiator+0x248>)
100420ec:	b089      	sub	sp, #36	@ 0x24
100420ee:	4b91      	ldr	r3, [pc, #580]	@ (10042334 <DW1000_initiator+0x24c>)
100420f0:	9202      	str	r2, [sp, #8]
100420f2:	7812      	ldrb	r2, [r2, #0]
100420f4:	0005      	movs	r5, r0
100420f6:	709a      	strb	r2, [r3, #2]
100420f8:	220b      	movs	r2, #11
100420fa:	2404      	movs	r4, #4
100420fc:	7299      	strb	r1, [r3, #10]
100420fe:	000f      	movs	r7, r1
10042100:	9200      	str	r2, [sp, #0]
10042102:	2109      	movs	r1, #9
10042104:	2200      	movs	r2, #0
10042106:	f7ff fc9b 	bl	10041a40 <DW1000_write_reg>
1004210a:	4b8b      	ldr	r3, [pc, #556]	@ (10042338 <DW1000_initiator+0x250>)
1004210c:	2108      	movs	r1, #8
1004210e:	681a      	ldr	r2, [r3, #0]
10042110:	4b8a      	ldr	r3, [pc, #552]	@ (1004233c <DW1000_initiator+0x254>)
10042112:	0028      	movs	r0, r5
10042114:	4313      	orrs	r3, r2
10042116:	9305      	str	r3, [sp, #20]
10042118:	2200      	movs	r2, #0
1004211a:	ab05      	add	r3, sp, #20
1004211c:	9400      	str	r4, [sp, #0]
1004211e:	f7ff fc8f 	bl	10041a40 <DW1000_write_reg>
10042122:	2382      	movs	r3, #130	@ 0x82
10042124:	9305      	str	r3, [sp, #20]
10042126:	3b81      	subs	r3, #129	@ 0x81
10042128:	9300      	str	r3, [sp, #0]
1004212a:	2200      	movs	r2, #0
1004212c:	210d      	movs	r1, #13
1004212e:	0028      	movs	r0, r5
10042130:	ab05      	add	r3, sp, #20
10042132:	f7ff fc85 	bl	10041a40 <DW1000_write_reg>
10042136:	4e82      	ldr	r6, [pc, #520]	@ (10042340 <DW1000_initiator+0x258>)
10042138:	2200      	movs	r2, #0
1004213a:	0033      	movs	r3, r6
1004213c:	210f      	movs	r1, #15
1004213e:	0028      	movs	r0, r5
10042140:	9400      	str	r4, [sp, #0]
10042142:	f7ff fcb7 	bl	10041ab4 <DW1000_read_reg>
10042146:	6833      	ldr	r3, [r6, #0]
10042148:	4a7e      	ldr	r2, [pc, #504]	@ (10042344 <DW1000_initiator+0x25c>)
1004214a:	4213      	tst	r3, r2
1004214c:	d0f3      	beq.n	10042136 <DW1000_initiator+0x4e>
1004214e:	9a02      	ldr	r2, [sp, #8]
10042150:	9902      	ldr	r1, [sp, #8]
10042152:	7812      	ldrb	r2, [r2, #0]
10042154:	3201      	adds	r2, #1
10042156:	700a      	strb	r2, [r1, #0]
10042158:	2180      	movs	r1, #128	@ 0x80
1004215a:	001a      	movs	r2, r3
1004215c:	01c9      	lsls	r1, r1, #7
1004215e:	400a      	ands	r2, r1
10042160:	420b      	tst	r3, r1
10042162:	d100      	bne.n	10042166 <DW1000_initiator+0x7e>
10042164:	e0c7      	b.n	100422f6 <DW1000_initiator+0x20e>
10042166:	2381      	movs	r3, #129	@ 0x81
10042168:	01db      	lsls	r3, r3, #7
1004216a:	2200      	movs	r2, #0
1004216c:	210f      	movs	r1, #15
1004216e:	0028      	movs	r0, r5
10042170:	9305      	str	r3, [sp, #20]
10042172:	9400      	str	r4, [sp, #0]
10042174:	ab05      	add	r3, sp, #20
10042176:	f7ff fc63 	bl	10041a40 <DW1000_write_reg>
1004217a:	2200      	movs	r2, #0
1004217c:	9400      	str	r4, [sp, #0]
1004217e:	ab06      	add	r3, sp, #24
10042180:	2110      	movs	r1, #16
10042182:	0028      	movs	r0, r5
10042184:	f7ff fc96 	bl	10041ab4 <DW1000_read_reg>
10042188:	227f      	movs	r2, #127	@ 0x7f
1004218a:	9b06      	ldr	r3, [sp, #24]
1004218c:	4c6e      	ldr	r4, [pc, #440]	@ (10042348 <DW1000_initiator+0x260>)
1004218e:	4013      	ands	r3, r2
10042190:	9306      	str	r3, [sp, #24]
10042192:	2b19      	cmp	r3, #25
10042194:	d806      	bhi.n	100421a4 <DW1000_initiator+0xbc>
10042196:	9300      	str	r3, [sp, #0]
10042198:	2200      	movs	r2, #0
1004219a:	0023      	movs	r3, r4
1004219c:	2111      	movs	r1, #17
1004219e:	0028      	movs	r0, r5
100421a0:	f7ff fc88 	bl	10041ab4 <DW1000_read_reg>
100421a4:	2300      	movs	r3, #0
100421a6:	220a      	movs	r2, #10
100421a8:	0020      	movs	r0, r4
100421aa:	4968      	ldr	r1, [pc, #416]	@ (1004234c <DW1000_initiator+0x264>)
100421ac:	70a3      	strb	r3, [r4, #2]
100421ae:	f002 fd49 	bl	10044c44 <memcmp>
100421b2:	1e06      	subs	r6, r0, #0
100421b4:	d000      	beq.n	100421b8 <DW1000_initiator+0xd0>
100421b6:	e09c      	b.n	100422f2 <DW1000_initiator+0x20a>
100421b8:	7b63      	ldrb	r3, [r4, #13]
100421ba:	42bb      	cmp	r3, r7
100421bc:	d000      	beq.n	100421c0 <DW1000_initiator+0xd8>
100421be:	e098      	b.n	100422f2 <DW1000_initiator+0x20a>
100421c0:	0028      	movs	r0, r5
100421c2:	f7ff fca4 	bl	10041b0e <get_tx_timestamp_u64>
100421c6:	4c62      	ldr	r4, [pc, #392]	@ (10042350 <DW1000_initiator+0x268>)
100421c8:	6020      	str	r0, [r4, #0]
100421ca:	6061      	str	r1, [r4, #4]
100421cc:	0028      	movs	r0, r5
100421ce:	f7ff fcb5 	bl	10041b3c <get_rx_timestamp_u64>
100421d2:	0002      	movs	r2, r0
100421d4:	20fa      	movs	r0, #250	@ 0xfa
100421d6:	000b      	movs	r3, r1
100421d8:	2100      	movs	r1, #0
100421da:	4f5e      	ldr	r7, [pc, #376]	@ (10042354 <DW1000_initiator+0x26c>)
100421dc:	0500      	lsls	r0, r0, #20
100421de:	603a      	str	r2, [r7, #0]
100421e0:	607b      	str	r3, [r7, #4]
100421e2:	1812      	adds	r2, r2, r0
100421e4:	414b      	adcs	r3, r1
100421e6:	0011      	movs	r1, r2
100421e8:	061b      	lsls	r3, r3, #24
100421ea:	0a0a      	lsrs	r2, r1, #8
100421ec:	431a      	orrs	r2, r3
100421ee:	2304      	movs	r3, #4
100421f0:	210a      	movs	r1, #10
100421f2:	0028      	movs	r0, r5
100421f4:	9207      	str	r2, [sp, #28]
100421f6:	9300      	str	r3, [sp, #0]
100421f8:	2201      	movs	r2, #1
100421fa:	ab07      	add	r3, sp, #28
100421fc:	f7ff fc20 	bl	10041a40 <DW1000_write_reg>
10042200:	9a07      	ldr	r2, [sp, #28]
10042202:	0213      	lsls	r3, r2, #8
10042204:	0a5b      	lsrs	r3, r3, #9
10042206:	0258      	lsls	r0, r3, #9
10042208:	2300      	movs	r3, #0
1004220a:	0e11      	lsrs	r1, r2, #24
1004220c:	4a52      	ldr	r2, [pc, #328]	@ (10042358 <DW1000_initiator+0x270>)
1004220e:	1812      	adds	r2, r2, r0
10042210:	414b      	adcs	r3, r1
10042212:	0030      	movs	r0, r6
10042214:	4e51      	ldr	r6, [pc, #324]	@ (1004235c <DW1000_initiator+0x274>)
10042216:	4952      	ldr	r1, [pc, #328]	@ (10042360 <DW1000_initiator+0x278>)
10042218:	9603      	str	r6, [sp, #12]
1004221a:	600a      	str	r2, [r1, #0]
1004221c:	604b      	str	r3, [r1, #4]
1004221e:	cc12      	ldmia	r4, {r1, r4}
10042220:	9e03      	ldr	r6, [sp, #12]
10042222:	5431      	strb	r1, [r6, r0]
10042224:	0626      	lsls	r6, r4, #24
10042226:	0a09      	lsrs	r1, r1, #8
10042228:	3001      	adds	r0, #1
1004222a:	4331      	orrs	r1, r6
1004222c:	0a24      	lsrs	r4, r4, #8
1004222e:	2804      	cmp	r0, #4
10042230:	d1f6      	bne.n	10042220 <DW1000_initiator+0x138>
10042232:	cf12      	ldmia	r7!, {r1, r4}
10042234:	2000      	movs	r0, #0
10042236:	4f4b      	ldr	r7, [pc, #300]	@ (10042364 <DW1000_initiator+0x27c>)
10042238:	5439      	strb	r1, [r7, r0]
1004223a:	0626      	lsls	r6, r4, #24
1004223c:	0a09      	lsrs	r1, r1, #8
1004223e:	3001      	adds	r0, #1
10042240:	4331      	orrs	r1, r6
10042242:	0a24      	lsrs	r4, r4, #8
10042244:	2804      	cmp	r0, #4
10042246:	d1f7      	bne.n	10042238 <DW1000_initiator+0x150>
10042248:	2400      	movs	r4, #0
1004224a:	4f47      	ldr	r7, [pc, #284]	@ (10042368 <DW1000_initiator+0x280>)
1004224c:	061e      	lsls	r6, r3, #24
1004224e:	0a10      	lsrs	r0, r2, #8
10042250:	553a      	strb	r2, [r7, r4]
10042252:	0a19      	lsrs	r1, r3, #8
10042254:	4306      	orrs	r6, r0
10042256:	3401      	adds	r4, #1
10042258:	0032      	movs	r2, r6
1004225a:	000b      	movs	r3, r1
1004225c:	2c04      	cmp	r4, #4
1004225e:	d1f5      	bne.n	1004224c <DW1000_initiator+0x164>
10042260:	9a02      	ldr	r2, [sp, #8]
10042262:	4b42      	ldr	r3, [pc, #264]	@ (1004236c <DW1000_initiator+0x284>)
10042264:	7812      	ldrb	r2, [r2, #0]
10042266:	2109      	movs	r1, #9
10042268:	709a      	strb	r2, [r3, #2]
1004226a:	2217      	movs	r2, #23
1004226c:	0028      	movs	r0, r5
1004226e:	9200      	str	r2, [sp, #0]
10042270:	2200      	movs	r2, #0
10042272:	f7ff fbe5 	bl	10041a40 <DW1000_write_reg>
10042276:	4b30      	ldr	r3, [pc, #192]	@ (10042338 <DW1000_initiator+0x250>)
10042278:	2108      	movs	r1, #8
1004227a:	681a      	ldr	r2, [r3, #0]
1004227c:	4b3c      	ldr	r3, [pc, #240]	@ (10042370 <DW1000_initiator+0x288>)
1004227e:	0028      	movs	r0, r5
10042280:	4313      	orrs	r3, r2
10042282:	9305      	str	r3, [sp, #20]
10042284:	2200      	movs	r2, #0
10042286:	ab05      	add	r3, sp, #20
10042288:	9400      	str	r4, [sp, #0]
1004228a:	f7ff fbd9 	bl	10041a40 <DW1000_write_reg>
1004228e:	2306      	movs	r3, #6
10042290:	9a05      	ldr	r2, [sp, #20]
10042292:	210d      	movs	r1, #13
10042294:	4313      	orrs	r3, r2
10042296:	9305      	str	r3, [sp, #20]
10042298:	2301      	movs	r3, #1
1004229a:	2200      	movs	r2, #0
1004229c:	0028      	movs	r0, r5
1004229e:	9300      	str	r3, [sp, #0]
100422a0:	ab05      	add	r3, sp, #20
100422a2:	f7ff fbcd 	bl	10041a40 <DW1000_write_reg>
100422a6:	2302      	movs	r3, #2
100422a8:	2203      	movs	r2, #3
100422aa:	9300      	str	r3, [sp, #0]
100422ac:	210f      	movs	r1, #15
100422ae:	ab05      	add	r3, sp, #20
100422b0:	0028      	movs	r0, r5
100422b2:	f7ff fbff 	bl	10041ab4 <DW1000_read_reg>
100422b6:	2381      	movs	r3, #129	@ 0x81
100422b8:	9a05      	ldr	r2, [sp, #20]
100422ba:	00db      	lsls	r3, r3, #3
100422bc:	421a      	tst	r2, r3
100422be:	d118      	bne.n	100422f2 <DW1000_initiator+0x20a>
100422c0:	2780      	movs	r7, #128	@ 0x80
100422c2:	4e1f      	ldr	r6, [pc, #124]	@ (10042340 <DW1000_initiator+0x258>)
100422c4:	2200      	movs	r2, #0
100422c6:	0033      	movs	r3, r6
100422c8:	210f      	movs	r1, #15
100422ca:	0028      	movs	r0, r5
100422cc:	9400      	str	r4, [sp, #0]
100422ce:	f7ff fbf1 	bl	10041ab4 <DW1000_read_reg>
100422d2:	6833      	ldr	r3, [r6, #0]
100422d4:	423b      	tst	r3, r7
100422d6:	d0f4      	beq.n	100422c2 <DW1000_initiator+0x1da>
100422d8:	2200      	movs	r2, #0
100422da:	ab05      	add	r3, sp, #20
100422dc:	210f      	movs	r1, #15
100422de:	0028      	movs	r0, r5
100422e0:	9400      	str	r4, [sp, #0]
100422e2:	9705      	str	r7, [sp, #20]
100422e4:	f7ff fbac 	bl	10041a40 <DW1000_write_reg>
100422e8:	9b02      	ldr	r3, [sp, #8]
100422ea:	9a02      	ldr	r2, [sp, #8]
100422ec:	781b      	ldrb	r3, [r3, #0]
100422ee:	3301      	adds	r3, #1
100422f0:	7013      	strb	r3, [r2, #0]
100422f2:	b009      	add	sp, #36	@ 0x24
100422f4:	bdf0      	pop	{r4, r5, r6, r7, pc}
100422f6:	4b1f      	ldr	r3, [pc, #124]	@ (10042374 <DW1000_initiator+0x28c>)
100422f8:	0028      	movs	r0, r5
100422fa:	9305      	str	r3, [sp, #20]
100422fc:	9400      	str	r4, [sp, #0]
100422fe:	ab05      	add	r3, sp, #20
10042300:	210f      	movs	r1, #15
10042302:	f7ff fb9d 	bl	10041a40 <DW1000_write_reg>
10042306:	2401      	movs	r4, #1
10042308:	23e0      	movs	r3, #224	@ 0xe0
1004230a:	0028      	movs	r0, r5
1004230c:	9305      	str	r3, [sp, #20]
1004230e:	2203      	movs	r2, #3
10042310:	ab05      	add	r3, sp, #20
10042312:	2136      	movs	r1, #54	@ 0x36
10042314:	9400      	str	r4, [sp, #0]
10042316:	f7ff fb93 	bl	10041a40 <DW1000_write_reg>
1004231a:	23f0      	movs	r3, #240	@ 0xf0
1004231c:	2203      	movs	r2, #3
1004231e:	9305      	str	r3, [sp, #20]
10042320:	2136      	movs	r1, #54	@ 0x36
10042322:	0028      	movs	r0, r5
10042324:	9400      	str	r4, [sp, #0]
10042326:	ab05      	add	r3, sp, #20
10042328:	f7ff fb8a 	bl	10041a40 <DW1000_write_reg>
1004232c:	e7e1      	b.n	100422f2 <DW1000_initiator+0x20a>
1004232e:	46c0      	nop			@ (mov r8, r8)
10042330:	2000017c 	.word	0x2000017c
10042334:	20000999 	.word	0x20000999
10042338:	200001b8 	.word	0x200001b8
1004233c:	0000800d 	.word	0x0000800d
10042340:	200001b4 	.word	0x200001b4
10042344:	2427d000 	.word	0x2427d000
10042348:	20000198 	.word	0x20000198
1004234c:	20000989 	.word	0x20000989
10042350:	20000190 	.word	0x20000190
10042354:	20000188 	.word	0x20000188
10042358:	00004034 	.word	0x00004034
1004235c:	2000097a 	.word	0x2000097a
10042360:	20000180 	.word	0x20000180
10042364:	2000097e 	.word	0x2000097e
10042368:	20000982 	.word	0x20000982
1004236c:	20000970 	.word	0x20000970
10042370:	00008019 	.word	0x00008019
10042374:	24279000 	.word	0x24279000

10042378 <SPI_write8>:
10042378:	b5f0      	push	{r4, r5, r6, r7, lr}
1004237a:	2440      	movs	r4, #64	@ 0x40
1004237c:	b08b      	sub	sp, #44	@ 0x2c
1004237e:	9003      	str	r0, [sp, #12]
10042380:	6800      	ldr	r0, [r0, #0]
10042382:	9209      	str	r2, [sp, #36]	@ 0x24
10042384:	6802      	ldr	r2, [r0, #0]
10042386:	4322      	orrs	r2, r4
10042388:	6002      	str	r2, [r0, #0]
1004238a:	4a21      	ldr	r2, [pc, #132]	@ (10042410 <SPI_write8+0x98>)
1004238c:	9208      	str	r2, [sp, #32]
1004238e:	6812      	ldr	r2, [r2, #0]
10042390:	9200      	str	r2, [sp, #0]
10042392:	2200      	movs	r2, #0
10042394:	0010      	movs	r0, r2
10042396:	9201      	str	r2, [sp, #4]
10042398:	3202      	adds	r2, #2
1004239a:	4694      	mov	ip, r2
1004239c:	9a03      	ldr	r2, [sp, #12]
1004239e:	9c09      	ldr	r4, [sp, #36]	@ 0x24
100423a0:	6812      	ldr	r2, [r2, #0]
100423a2:	42a0      	cmp	r0, r4
100423a4:	d115      	bne.n	100423d2 <SPI_write8+0x5a>
100423a6:	4c1a      	ldr	r4, [pc, #104]	@ (10042410 <SPI_write8+0x98>)
100423a8:	2180      	movs	r1, #128	@ 0x80
100423aa:	46a4      	mov	ip, r4
100423ac:	6894      	ldr	r4, [r2, #8]
100423ae:	420c      	tst	r4, r1
100423b0:	d119      	bne.n	100423e6 <SPI_write8+0x6e>
100423b2:	3001      	adds	r0, #1
100423b4:	e026      	b.n	10042404 <SPI_write8+0x8c>
100423b6:	9c08      	ldr	r4, [sp, #32]
100423b8:	9505      	str	r5, [sp, #20]
100423ba:	6824      	ldr	r4, [r4, #0]
100423bc:	9e00      	ldr	r6, [sp, #0]
100423be:	9f01      	ldr	r7, [sp, #4]
100423c0:	9404      	str	r4, [sp, #16]
100423c2:	9c04      	ldr	r4, [sp, #16]
100423c4:	9d05      	ldr	r5, [sp, #20]
100423c6:	1ba4      	subs	r4, r4, r6
100423c8:	41bd      	sbcs	r5, r7
100423ca:	2d00      	cmp	r5, #0
100423cc:	d11a      	bne.n	10042404 <SPI_write8+0x8c>
100423ce:	429c      	cmp	r4, r3
100423d0:	d818      	bhi.n	10042404 <SPI_write8+0x8c>
100423d2:	4665      	mov	r5, ip
100423d4:	4666      	mov	r6, ip
100423d6:	6894      	ldr	r4, [r2, #8]
100423d8:	4025      	ands	r5, r4
100423da:	4234      	tst	r4, r6
100423dc:	d0eb      	beq.n	100423b6 <SPI_write8+0x3e>
100423de:	5c0c      	ldrb	r4, [r1, r0]
100423e0:	3001      	adds	r0, #1
100423e2:	7314      	strb	r4, [r2, #12]
100423e4:	e7da      	b.n	1004239c <SPI_write8+0x24>
100423e6:	4664      	mov	r4, ip
100423e8:	9e00      	ldr	r6, [sp, #0]
100423ea:	9f01      	ldr	r7, [sp, #4]
100423ec:	6824      	ldr	r4, [r4, #0]
100423ee:	9406      	str	r4, [sp, #24]
100423f0:	2400      	movs	r4, #0
100423f2:	9407      	str	r4, [sp, #28]
100423f4:	9c06      	ldr	r4, [sp, #24]
100423f6:	9d07      	ldr	r5, [sp, #28]
100423f8:	1ba4      	subs	r4, r4, r6
100423fa:	41bd      	sbcs	r5, r7
100423fc:	2d00      	cmp	r5, #0
100423fe:	d101      	bne.n	10042404 <SPI_write8+0x8c>
10042400:	429c      	cmp	r4, r3
10042402:	d9d3      	bls.n	100423ac <SPI_write8+0x34>
10042404:	2140      	movs	r1, #64	@ 0x40
10042406:	6813      	ldr	r3, [r2, #0]
10042408:	438b      	bics	r3, r1
1004240a:	6013      	str	r3, [r2, #0]
1004240c:	b00b      	add	sp, #44	@ 0x2c
1004240e:	bdf0      	pop	{r4, r5, r6, r7, pc}
10042410:	20000810 	.word	0x20000810

10042414 <SPI_read8>:
10042414:	b5f0      	push	{r4, r5, r6, r7, lr}
10042416:	b08d      	sub	sp, #52	@ 0x34
10042418:	9109      	str	r1, [sp, #36]	@ 0x24
1004241a:	2140      	movs	r1, #64	@ 0x40
1004241c:	9308      	str	r3, [sp, #32]
1004241e:	6803      	ldr	r3, [r0, #0]
10042420:	920a      	str	r2, [sp, #40]	@ 0x28
10042422:	681a      	ldr	r2, [r3, #0]
10042424:	0004      	movs	r4, r0
10042426:	430a      	orrs	r2, r1
10042428:	601a      	str	r2, [r3, #0]
1004242a:	4a34      	ldr	r2, [pc, #208]	@ (100424fc <SPI_read8+0xe8>)
1004242c:	6812      	ldr	r2, [r2, #0]
1004242e:	9200      	str	r2, [sp, #0]
10042430:	2200      	movs	r2, #0
10042432:	9201      	str	r2, [sp, #4]
10042434:	3201      	adds	r2, #1
10042436:	6899      	ldr	r1, [r3, #8]
10042438:	0008      	movs	r0, r1
1004243a:	4010      	ands	r0, r2
1004243c:	4211      	tst	r1, r2
1004243e:	d10f      	bne.n	10042460 <SPI_read8+0x4c>
10042440:	4b2e      	ldr	r3, [pc, #184]	@ (100424fc <SPI_read8+0xe8>)
10042442:	930b      	str	r3, [sp, #44]	@ 0x2c
10042444:	9a0a      	ldr	r2, [sp, #40]	@ 0x28
10042446:	6823      	ldr	r3, [r4, #0]
10042448:	4290      	cmp	r0, r2
1004244a:	d11a      	bne.n	10042482 <SPI_read8+0x6e>
1004244c:	2280      	movs	r2, #128	@ 0x80
1004244e:	4694      	mov	ip, r2
10042450:	4a2a      	ldr	r2, [pc, #168]	@ (100424fc <SPI_read8+0xe8>)
10042452:	9202      	str	r2, [sp, #8]
10042454:	4662      	mov	r2, ip
10042456:	689d      	ldr	r5, [r3, #8]
10042458:	4215      	tst	r5, r2
1004245a:	d13e      	bne.n	100424da <SPI_read8+0xc6>
1004245c:	3001      	adds	r0, #1
1004245e:	e035      	b.n	100424cc <SPI_read8+0xb8>
10042460:	68d9      	ldr	r1, [r3, #12]
10042462:	e7e8      	b.n	10042436 <SPI_read8+0x22>
10042464:	9a0b      	ldr	r2, [sp, #44]	@ 0x2c
10042466:	9603      	str	r6, [sp, #12]
10042468:	6815      	ldr	r5, [r2, #0]
1004246a:	9900      	ldr	r1, [sp, #0]
1004246c:	9a01      	ldr	r2, [sp, #4]
1004246e:	9502      	str	r5, [sp, #8]
10042470:	9e02      	ldr	r6, [sp, #8]
10042472:	9f03      	ldr	r7, [sp, #12]
10042474:	1a76      	subs	r6, r6, r1
10042476:	4197      	sbcs	r7, r2
10042478:	2f00      	cmp	r7, #0
1004247a:	d127      	bne.n	100424cc <SPI_read8+0xb8>
1004247c:	9a08      	ldr	r2, [sp, #32]
1004247e:	4296      	cmp	r6, r2
10042480:	d824      	bhi.n	100424cc <SPI_read8+0xb8>
10042482:	689d      	ldr	r5, [r3, #8]
10042484:	2202      	movs	r2, #2
10042486:	002e      	movs	r6, r5
10042488:	4016      	ands	r6, r2
1004248a:	4215      	tst	r5, r2
1004248c:	d0ea      	beq.n	10042464 <SPI_read8+0x50>
1004248e:	2500      	movs	r5, #0
10042490:	4a1a      	ldr	r2, [pc, #104]	@ (100424fc <SPI_read8+0xe8>)
10042492:	731d      	strb	r5, [r3, #12]
10042494:	4694      	mov	ip, r2
10042496:	6823      	ldr	r3, [r4, #0]
10042498:	3501      	adds	r5, #1
1004249a:	689e      	ldr	r6, [r3, #8]
1004249c:	0037      	movs	r7, r6
1004249e:	402f      	ands	r7, r5
100424a0:	422e      	tst	r6, r5
100424a2:	d004      	beq.n	100424ae <SPI_read8+0x9a>
100424a4:	68db      	ldr	r3, [r3, #12]
100424a6:	9a09      	ldr	r2, [sp, #36]	@ 0x24
100424a8:	5413      	strb	r3, [r2, r0]
100424aa:	3001      	adds	r0, #1
100424ac:	e7ca      	b.n	10042444 <SPI_read8+0x30>
100424ae:	4662      	mov	r2, ip
100424b0:	6816      	ldr	r6, [r2, #0]
100424b2:	9705      	str	r7, [sp, #20]
100424b4:	9604      	str	r6, [sp, #16]
100424b6:	9e04      	ldr	r6, [sp, #16]
100424b8:	9f05      	ldr	r7, [sp, #20]
100424ba:	9900      	ldr	r1, [sp, #0]
100424bc:	9a01      	ldr	r2, [sp, #4]
100424be:	1a76      	subs	r6, r6, r1
100424c0:	4197      	sbcs	r7, r2
100424c2:	2f00      	cmp	r7, #0
100424c4:	d102      	bne.n	100424cc <SPI_read8+0xb8>
100424c6:	9a08      	ldr	r2, [sp, #32]
100424c8:	4296      	cmp	r6, r2
100424ca:	d9e6      	bls.n	1004249a <SPI_read8+0x86>
100424cc:	2140      	movs	r1, #64	@ 0x40
100424ce:	6822      	ldr	r2, [r4, #0]
100424d0:	6813      	ldr	r3, [r2, #0]
100424d2:	438b      	bics	r3, r1
100424d4:	6013      	str	r3, [r2, #0]
100424d6:	b00d      	add	sp, #52	@ 0x34
100424d8:	bdf0      	pop	{r4, r5, r6, r7, pc}
100424da:	9a02      	ldr	r2, [sp, #8]
100424dc:	6815      	ldr	r5, [r2, #0]
100424de:	2200      	movs	r2, #0
100424e0:	9506      	str	r5, [sp, #24]
100424e2:	9207      	str	r2, [sp, #28]
100424e4:	9e06      	ldr	r6, [sp, #24]
100424e6:	9f07      	ldr	r7, [sp, #28]
100424e8:	9900      	ldr	r1, [sp, #0]
100424ea:	9a01      	ldr	r2, [sp, #4]
100424ec:	1a76      	subs	r6, r6, r1
100424ee:	4197      	sbcs	r7, r2
100424f0:	2f00      	cmp	r7, #0
100424f2:	d1eb      	bne.n	100424cc <SPI_read8+0xb8>
100424f4:	9a08      	ldr	r2, [sp, #32]
100424f6:	4296      	cmp	r6, r2
100424f8:	d9ac      	bls.n	10042454 <SPI_read8+0x40>
100424fa:	e7e7      	b.n	100424cc <SPI_read8+0xb8>
100424fc:	20000810 	.word	0x20000810

10042500 <SystemClock_Config>:
10042500:	b510      	push	{r4, lr}
10042502:	2410      	movs	r4, #16
10042504:	b088      	sub	sp, #32
10042506:	0022      	movs	r2, r4
10042508:	2100      	movs	r1, #0
1004250a:	a804      	add	r0, sp, #16
1004250c:	f002 fba8 	bl	10044c60 <memset>
10042510:	2100      	movs	r1, #0
10042512:	2208      	movs	r2, #8
10042514:	4668      	mov	r0, sp
10042516:	f002 fba3 	bl	10044c60 <memset>
1004251a:	2303      	movs	r3, #3
1004251c:	9302      	str	r3, [sp, #8]
1004251e:	2380      	movs	r3, #128	@ 0x80
10042520:	a802      	add	r0, sp, #8
10042522:	025b      	lsls	r3, r3, #9
10042524:	9303      	str	r3, [sp, #12]
10042526:	9405      	str	r4, [sp, #20]
10042528:	f002 f8f0 	bl	1004470c <HAL_RCC_OscConfig>
1004252c:	1e01      	subs	r1, r0, #0
1004252e:	d001      	beq.n	10042534 <SystemClock_Config+0x34>
10042530:	b672      	cpsid	i
10042532:	e7fe      	b.n	10042532 <SystemClock_Config+0x32>
10042534:	2320      	movs	r3, #32
10042536:	9000      	str	r0, [sp, #0]
10042538:	4668      	mov	r0, sp
1004253a:	9301      	str	r3, [sp, #4]
1004253c:	f002 fa28 	bl	10044990 <HAL_RCC_ClockConfig>
10042540:	2800      	cmp	r0, #0
10042542:	d001      	beq.n	10042548 <SystemClock_Config+0x48>
10042544:	b672      	cpsid	i
10042546:	e7fe      	b.n	10042546 <SystemClock_Config+0x46>
10042548:	b008      	add	sp, #32
1004254a:	bd10      	pop	{r4, pc}

1004254c <PeriphCommonClock_Config>:
1004254c:	b57f      	push	{r0, r1, r2, r3, r4, r5, r6, lr}
1004254e:	2210      	movs	r2, #16
10042550:	2100      	movs	r1, #0
10042552:	a801      	add	r0, sp, #4
10042554:	f002 fb84 	bl	10044c60 <memset>
10042558:	2302      	movs	r3, #2
1004255a:	9300      	str	r3, [sp, #0]
1004255c:	2380      	movs	r3, #128	@ 0x80
1004255e:	4668      	mov	r0, sp
10042560:	015b      	lsls	r3, r3, #5
10042562:	9305      	str	r3, [sp, #20]
10042564:	f002 faba 	bl	10044adc <HAL_RCCEx_PeriphCLKConfig>
10042568:	2800      	cmp	r0, #0
1004256a:	d001      	beq.n	10042570 <PeriphCommonClock_Config+0x24>
1004256c:	b672      	cpsid	i
1004256e:	e7fe      	b.n	1004256e <PeriphCommonClock_Config+0x22>
10042570:	b007      	add	sp, #28
10042572:	bd00      	pop	{pc}

10042574 <split_from_uint64>:
10042574:	b5f8      	push	{r3, r4, r5, r6, r7, lr}
10042576:	0007      	movs	r7, r0
10042578:	000e      	movs	r6, r1
1004257a:	0015      	movs	r5, r2
1004257c:	2400      	movs	r4, #0
1004257e:	00e2      	lsls	r2, r4, #3
10042580:	4252      	negs	r2, r2
10042582:	0038      	movs	r0, r7
10042584:	0031      	movs	r1, r6
10042586:	3238      	adds	r2, #56	@ 0x38
10042588:	f7fd fe48 	bl	1004021c <__aeabi_llsr>
1004258c:	5528      	strb	r0, [r5, r4]
1004258e:	3401      	adds	r4, #1
10042590:	2c08      	cmp	r4, #8
10042592:	d1f4      	bne.n	1004257e <split_from_uint64+0xa>
10042594:	bdf8      	pop	{r3, r4, r5, r6, r7, pc}
	...

10042598 <main>:
10042598:	b5f0      	push	{r4, r5, r6, r7, lr}
1004259a:	b093      	sub	sp, #76	@ 0x4c
1004259c:	ac0d      	add	r4, sp, #52	@ 0x34
1004259e:	f000 fc85 	bl	10042eac <HAL_Init>
100425a2:	f7ff ffad 	bl	10042500 <SystemClock_Config>
100425a6:	f7ff ffd1 	bl	1004254c <PeriphCommonClock_Config>
100425aa:	2214      	movs	r2, #20
100425ac:	2100      	movs	r1, #0
100425ae:	0020      	movs	r0, r4
100425b0:	f002 fb56 	bl	10044c60 <memset>
100425b4:	2208      	movs	r2, #8
100425b6:	2004      	movs	r0, #4
100425b8:	4dd2      	ldr	r5, [pc, #840]	@ (10042904 <main+0x36c>)
100425ba:	4ed3      	ldr	r6, [pc, #844]	@ (10042908 <main+0x370>)
100425bc:	6d2b      	ldr	r3, [r5, #80]	@ 0x50
100425be:	0031      	movs	r1, r6
100425c0:	4313      	orrs	r3, r2
100425c2:	652b      	str	r3, [r5, #80]	@ 0x50
100425c4:	6d2b      	ldr	r3, [r5, #80]	@ 0x50
100425c6:	2700      	movs	r7, #0
100425c8:	4013      	ands	r3, r2
100425ca:	9309      	str	r3, [sp, #36]	@ 0x24
100425cc:	9b09      	ldr	r3, [sp, #36]	@ 0x24
100425ce:	6d2b      	ldr	r3, [r5, #80]	@ 0x50
100425d0:	2200      	movs	r2, #0
100425d2:	4303      	orrs	r3, r0
100425d4:	652b      	str	r3, [r5, #80]	@ 0x50
100425d6:	6d2b      	ldr	r3, [r5, #80]	@ 0x50
100425d8:	4003      	ands	r3, r0
100425da:	2090      	movs	r0, #144	@ 0x90
100425dc:	9308      	str	r3, [sp, #32]
100425de:	05c0      	lsls	r0, r0, #23
100425e0:	9b08      	ldr	r3, [sp, #32]
100425e2:	f000 fd84 	bl	100430ee <HAL_GPIO_WritePin>
100425e6:	2180      	movs	r1, #128	@ 0x80
100425e8:	2200      	movs	r2, #0
100425ea:	48c8      	ldr	r0, [pc, #800]	@ (1004290c <main+0x374>)
100425ec:	00c9      	lsls	r1, r1, #3
100425ee:	f000 fd7e 	bl	100430ee <HAL_GPIO_WritePin>
100425f2:	2321      	movs	r3, #33	@ 0x21
100425f4:	930d      	str	r3, [sp, #52]	@ 0x34
100425f6:	2382      	movs	r3, #130	@ 0x82
100425f8:	03db      	lsls	r3, r3, #15
100425fa:	6063      	str	r3, [r4, #4]
100425fc:	0021      	movs	r1, r4
100425fe:	48c3      	ldr	r0, [pc, #780]	@ (1004290c <main+0x374>)
10042600:	60a7      	str	r7, [r4, #8]
10042602:	f000 fcd9 	bl	10042fb8 <HAL_GPIO_Init>
10042606:	960d      	str	r6, [sp, #52]	@ 0x34
10042608:	2090      	movs	r0, #144	@ 0x90
1004260a:	2601      	movs	r6, #1
1004260c:	0021      	movs	r1, r4
1004260e:	05c0      	lsls	r0, r0, #23
10042610:	6066      	str	r6, [r4, #4]
10042612:	60a7      	str	r7, [r4, #8]
10042614:	60e7      	str	r7, [r4, #12]
10042616:	f000 fccf 	bl	10042fb8 <HAL_GPIO_Init>
1004261a:	2004      	movs	r0, #4
1004261c:	2302      	movs	r3, #2
1004261e:	900d      	str	r0, [sp, #52]	@ 0x34
10042620:	2090      	movs	r0, #144	@ 0x90
10042622:	6063      	str	r3, [r4, #4]
10042624:	3303      	adds	r3, #3
10042626:	0021      	movs	r1, r4
10042628:	6123      	str	r3, [r4, #16]
1004262a:	05c0      	lsls	r0, r0, #23
1004262c:	60a6      	str	r6, [r4, #8]
1004262e:	60e7      	str	r7, [r4, #12]
10042630:	f000 fcc2 	bl	10042fb8 <HAL_GPIO_Init>
10042634:	2380      	movs	r3, #128	@ 0x80
10042636:	00db      	lsls	r3, r3, #3
10042638:	930d      	str	r3, [sp, #52]	@ 0x34
1004263a:	0021      	movs	r1, r4
1004263c:	48b3      	ldr	r0, [pc, #716]	@ (1004290c <main+0x374>)
1004263e:	6066      	str	r6, [r4, #4]
10042640:	60a7      	str	r7, [r4, #8]
10042642:	60e7      	str	r7, [r4, #12]
10042644:	f000 fcb8 	bl	10042fb8 <HAL_GPIO_Init>
10042648:	2004      	movs	r0, #4
1004264a:	4bb1      	ldr	r3, [pc, #708]	@ (10042910 <main+0x378>)
1004264c:	49b1      	ldr	r1, [pc, #708]	@ (10042914 <main+0x37c>)
1004264e:	6a1a      	ldr	r2, [r3, #32]
10042650:	400a      	ands	r2, r1
10042652:	621a      	str	r2, [r3, #32]
10042654:	6a5a      	ldr	r2, [r3, #36]	@ 0x24
10042656:	400a      	ands	r2, r1
10042658:	49af      	ldr	r1, [pc, #700]	@ (10042918 <main+0x380>)
1004265a:	625a      	str	r2, [r3, #36]	@ 0x24
1004265c:	680a      	ldr	r2, [r1, #0]
1004265e:	4382      	bics	r2, r0
10042660:	600a      	str	r2, [r1, #0]
10042662:	49ae      	ldr	r1, [pc, #696]	@ (1004291c <main+0x384>)
10042664:	680a      	ldr	r2, [r1, #0]
10042666:	4302      	orrs	r2, r0
10042668:	600a      	str	r2, [r1, #0]
1004266a:	6a9a      	ldr	r2, [r3, #40]	@ 0x28
1004266c:	49ac      	ldr	r1, [pc, #688]	@ (10042920 <main+0x388>)
1004266e:	300c      	adds	r0, #12
10042670:	400a      	ands	r2, r1
10042672:	629a      	str	r2, [r3, #40]	@ 0x28
10042674:	6ada      	ldr	r2, [r3, #44]	@ 0x2c
10042676:	400a      	ands	r2, r1
10042678:	62da      	str	r2, [r3, #44]	@ 0x2c
1004267a:	0031      	movs	r1, r6
1004267c:	003a      	movs	r2, r7
1004267e:	f000 fc4b 	bl	10042f18 <HAL_NVIC_SetPriority>
10042682:	2010      	movs	r0, #16
10042684:	f000 fc72 	bl	10042f6c <HAL_NVIC_EnableIRQ>
10042688:	23c0      	movs	r3, #192	@ 0xc0
1004268a:	0020      	movs	r0, r4
1004268c:	05db      	lsls	r3, r3, #23
1004268e:	930d      	str	r3, [sp, #52]	@ 0x34
10042690:	f000 fdac 	bl	100431ec <HAL_RADIO_Init>
10042694:	2208      	movs	r2, #8
10042696:	0039      	movs	r1, r7
10042698:	0020      	movs	r0, r4
1004269a:	f002 fae1 	bl	10044c60 <memset>
1004269e:	6e2b      	ldr	r3, [r5, #96]	@ 0x60
100426a0:	4233      	tst	r3, r6
100426a2:	d10c      	bne.n	100426be <main+0x126>
100426a4:	6c2b      	ldr	r3, [r5, #64]	@ 0x40
100426a6:	4333      	orrs	r3, r6
100426a8:	642b      	str	r3, [r5, #64]	@ 0x40
100426aa:	6c2b      	ldr	r3, [r5, #64]	@ 0x40
100426ac:	43b3      	bics	r3, r6
100426ae:	642b      	str	r3, [r5, #64]	@ 0x40
100426b0:	6e2b      	ldr	r3, [r5, #96]	@ 0x60
100426b2:	4333      	orrs	r3, r6
100426b4:	662b      	str	r3, [r5, #96]	@ 0x60
100426b6:	6e2b      	ldr	r3, [r5, #96]	@ 0x60
100426b8:	4033      	ands	r3, r6
100426ba:	930a      	str	r3, [sp, #40]	@ 0x28
100426bc:	9b0a      	ldr	r3, [sp, #40]	@ 0x28
100426be:	4a99      	ldr	r2, [pc, #612]	@ (10042924 <main+0x38c>)
100426c0:	6913      	ldr	r3, [r2, #16]
100426c2:	2b0f      	cmp	r3, #15
100426c4:	d9fc      	bls.n	100426c0 <main+0x128>
100426c6:	23a0      	movs	r3, #160	@ 0xa0
100426c8:	005b      	lsls	r3, r3, #1
100426ca:	0020      	movs	r0, r4
100426cc:	8023      	strh	r3, [r4, #0]
100426ce:	f001 fcf1 	bl	100440b4 <HAL_RADIO_TIMER_Init>
100426d2:	2280      	movs	r2, #128	@ 0x80
100426d4:	4894      	ldr	r0, [pc, #592]	@ (10042928 <main+0x390>)
100426d6:	4b95      	ldr	r3, [pc, #596]	@ (1004292c <main+0x394>)
100426d8:	2782      	movs	r7, #130	@ 0x82
100426da:	26e0      	movs	r6, #224	@ 0xe0
100426dc:	2508      	movs	r5, #8
100426de:	6003      	str	r3, [r0, #0]
100426e0:	2300      	movs	r3, #0
100426e2:	0092      	lsls	r2, r2, #2
100426e4:	6182      	str	r2, [r0, #24]
100426e6:	3ae9      	subs	r2, #233	@ 0xe9
100426e8:	3aff      	subs	r2, #255	@ 0xff
100426ea:	007f      	lsls	r7, r7, #1
100426ec:	00f6      	lsls	r6, r6, #3
100426ee:	61c2      	str	r2, [r0, #28]
100426f0:	3a11      	subs	r2, #17
100426f2:	6047      	str	r7, [r0, #4]
100426f4:	6083      	str	r3, [r0, #8]
100426f6:	60c6      	str	r6, [r0, #12]
100426f8:	6103      	str	r3, [r0, #16]
100426fa:	6143      	str	r3, [r0, #20]
100426fc:	6203      	str	r3, [r0, #32]
100426fe:	6243      	str	r3, [r0, #36]	@ 0x24
10042700:	6283      	str	r3, [r0, #40]	@ 0x28
10042702:	62c2      	str	r2, [r0, #44]	@ 0x2c
10042704:	6303      	str	r3, [r0, #48]	@ 0x30
10042706:	6345      	str	r5, [r0, #52]	@ 0x34
10042708:	f002 fa24 	bl	10044b54 <HAL_SPI_Init>
1004270c:	2800      	cmp	r0, #0
1004270e:	d001      	beq.n	10042714 <main+0x17c>
10042710:	b672      	cpsid	i
10042712:	e7fe      	b.n	10042712 <main+0x17a>
10042714:	4c86      	ldr	r4, [pc, #536]	@ (10042930 <main+0x398>)
10042716:	4b87      	ldr	r3, [pc, #540]	@ (10042934 <main+0x39c>)
10042718:	60a0      	str	r0, [r4, #8]
1004271a:	6023      	str	r3, [r4, #0]
1004271c:	2380      	movs	r3, #128	@ 0x80
1004271e:	009b      	lsls	r3, r3, #2
10042720:	61a3      	str	r3, [r4, #24]
10042722:	3be9      	subs	r3, #233	@ 0xe9
10042724:	3bff      	subs	r3, #255	@ 0xff
10042726:	6120      	str	r0, [r4, #16]
10042728:	6160      	str	r0, [r4, #20]
1004272a:	61e3      	str	r3, [r4, #28]
1004272c:	6220      	str	r0, [r4, #32]
1004272e:	6260      	str	r0, [r4, #36]	@ 0x24
10042730:	62a0      	str	r0, [r4, #40]	@ 0x28
10042732:	3b11      	subs	r3, #17
10042734:	6320      	str	r0, [r4, #48]	@ 0x30
10042736:	0020      	movs	r0, r4
10042738:	6067      	str	r7, [r4, #4]
1004273a:	60e6      	str	r6, [r4, #12]
1004273c:	62e3      	str	r3, [r4, #44]	@ 0x2c
1004273e:	6365      	str	r5, [r4, #52]	@ 0x34
10042740:	f002 fa08 	bl	10044b54 <HAL_SPI_Init>
10042744:	2800      	cmp	r0, #0
10042746:	d001      	beq.n	1004274c <main+0x1b4>
10042748:	b672      	cpsid	i
1004274a:	e7fe      	b.n	1004274a <main+0x1b2>
1004274c:	4e7a      	ldr	r6, [pc, #488]	@ (10042938 <main+0x3a0>)
1004274e:	0030      	movs	r0, r6
10042750:	f7ff fa0c 	bl	10041b6c <DW1000_init>
10042754:	0030      	movs	r0, r6
10042756:	4979      	ldr	r1, [pc, #484]	@ (1004293c <main+0x3a4>)
10042758:	f7ff fb38 	bl	10041dcc <DW1000_config>
1004275c:	2800      	cmp	r0, #0
1004275e:	d003      	beq.n	10042768 <main+0x1d0>
10042760:	0020      	movs	r0, r4
10042762:	61e5      	str	r5, [r4, #28]
10042764:	f002 f9f6 	bl	10044b54 <HAL_SPI_Init>
10042768:	4a75      	ldr	r2, [pc, #468]	@ (10042940 <main+0x3a8>)
1004276a:	4c76      	ldr	r4, [pc, #472]	@ (10042944 <main+0x3ac>)
1004276c:	6813      	ldr	r3, [r2, #0]
1004276e:	6850      	ldr	r0, [r2, #4]
10042770:	2208      	movs	r2, #8
10042772:	7062      	strb	r2, [r4, #1]
10042774:	3a06      	subs	r2, #6
10042776:	0011      	movs	r1, r2
10042778:	5463      	strb	r3, [r4, r1]
1004277a:	0601      	lsls	r1, r0, #24
1004277c:	0a1b      	lsrs	r3, r3, #8
1004277e:	430b      	orrs	r3, r1
10042780:	0019      	movs	r1, r3
10042782:	3201      	adds	r2, #1
10042784:	0a00      	lsrs	r0, r0, #8
10042786:	b2d2      	uxtb	r2, r2
10042788:	4301      	orrs	r1, r0
1004278a:	d1f4      	bne.n	10042776 <main+0x1de>
1004278c:	486e      	ldr	r0, [pc, #440]	@ (10042948 <main+0x3b0>)
1004278e:	f000 ffd5 	bl	1004373c <HAL_RADIO_SetNetworkID>
10042792:	2018      	movs	r0, #24
10042794:	f000 ffc8 	bl	10043728 <HAL_RADIO_SetTxPower>
10042798:	f001 fdc2 	bl	10044320 <HAL_RADIO_TIMER_Tick>
1004279c:	4b6b      	ldr	r3, [pc, #428]	@ (1004294c <main+0x3b4>)
1004279e:	781a      	ldrb	r2, [r3, #0]
100427a0:	2a00      	cmp	r2, #0
100427a2:	d0f9      	beq.n	10042798 <main+0x200>
100427a4:	2000      	movs	r0, #0
100427a6:	7018      	strb	r0, [r3, #0]
100427a8:	4d69      	ldr	r5, [pc, #420]	@ (10042950 <main+0x3b8>)
100427aa:	7028      	strb	r0, [r5, #0]
100427ac:	2827      	cmp	r0, #39	@ 0x27
100427ae:	d968      	bls.n	10042882 <main+0x2ea>
100427b0:	4b68      	ldr	r3, [pc, #416]	@ (10042954 <main+0x3bc>)
100427b2:	9306      	str	r3, [sp, #24]
100427b4:	781b      	ldrb	r3, [r3, #0]
100427b6:	2b00      	cmp	r3, #0
100427b8:	d0ee      	beq.n	10042798 <main+0x200>
100427ba:	2202      	movs	r2, #2
100427bc:	4d66      	ldr	r5, [pc, #408]	@ (10042958 <main+0x3c0>)
100427be:	2100      	movs	r1, #0
100427c0:	32ff      	adds	r2, #255	@ 0xff
100427c2:	0028      	movs	r0, r5
100427c4:	f002 fa4c 	bl	10044c60 <memset>
100427c8:	23ff      	movs	r3, #255	@ 0xff
100427ca:	702b      	strb	r3, [r5, #0]
100427cc:	4b5c      	ldr	r3, [pc, #368]	@ (10042940 <main+0x3a8>)
100427ce:	aa0b      	add	r2, sp, #44	@ 0x2c
100427d0:	6818      	ldr	r0, [r3, #0]
100427d2:	6859      	ldr	r1, [r3, #4]
100427d4:	f7ff fece 	bl	10042574 <split_from_uint64>
100427d8:	2208      	movs	r2, #8
100427da:	1ca8      	adds	r0, r5, #2
100427dc:	a90b      	add	r1, sp, #44	@ 0x2c
100427de:	f002 fa47 	bl	10044c70 <memcpy>
100427e2:	2600      	movs	r6, #0
100427e4:	240a      	movs	r4, #10
100427e6:	4b5d      	ldr	r3, [pc, #372]	@ (1004295c <main+0x3c4>)
100427e8:	9307      	str	r3, [sp, #28]
100427ea:	18f3      	adds	r3, r6, r3
100427ec:	681f      	ldr	r7, [r3, #0]
100427ee:	685b      	ldr	r3, [r3, #4]
100427f0:	433b      	orrs	r3, r7
100427f2:	d01e      	beq.n	10042832 <main+0x29a>
100427f4:	4b5a      	ldr	r3, [pc, #360]	@ (10042960 <main+0x3c8>)
100427f6:	18f3      	adds	r3, r6, r3
100427f8:	cb03      	ldmia	r3!, {r0, r1}
100427fa:	0003      	movs	r3, r0
100427fc:	430b      	orrs	r3, r1
100427fe:	d018      	beq.n	10042832 <main+0x29a>
10042800:	aa0d      	add	r2, sp, #52	@ 0x34
10042802:	f7ff feb7 	bl	10042574 <split_from_uint64>
10042806:	0023      	movs	r3, r4
10042808:	1de1      	adds	r1, r4, #7
1004280a:	1b1a      	subs	r2, r3, r4
1004280c:	b2d2      	uxtb	r2, r2
1004280e:	4694      	mov	ip, r2
10042810:	4299      	cmp	r1, r3
10042812:	da6d      	bge.n	100428f0 <main+0x358>
10042814:	b2fb      	uxtb	r3, r7
10042816:	2164      	movs	r1, #100	@ 0x64
10042818:	0018      	movs	r0, r3
1004281a:	9305      	str	r3, [sp, #20]
1004281c:	f7fd fc72 	bl	10040104 <__udivsi3>
10042820:	192f      	adds	r7, r5, r4
10042822:	7238      	strb	r0, [r7, #8]
10042824:	2164      	movs	r1, #100	@ 0x64
10042826:	9805      	ldr	r0, [sp, #20]
10042828:	f7fd fcf2 	bl	10040210 <__aeabi_uidivmod>
1004282c:	340a      	adds	r4, #10
1004282e:	7279      	strb	r1, [r7, #9]
10042830:	b2e4      	uxtb	r4, r4
10042832:	239c      	movs	r3, #156	@ 0x9c
10042834:	3608      	adds	r6, #8
10042836:	005b      	lsls	r3, r3, #1
10042838:	429e      	cmp	r6, r3
1004283a:	d1d4      	bne.n	100427e6 <main+0x24e>
1004283c:	4a49      	ldr	r2, [pc, #292]	@ (10042964 <main+0x3cc>)
1004283e:	706c      	strb	r4, [r5, #1]
10042840:	9202      	str	r2, [sp, #8]
10042842:	22ff      	movs	r2, #255	@ 0xff
10042844:	21c8      	movs	r1, #200	@ 0xc8
10042846:	9201      	str	r2, [sp, #4]
10042848:	4a47      	ldr	r2, [pc, #284]	@ (10042968 <main+0x3d0>)
1004284a:	4b48      	ldr	r3, [pc, #288]	@ (1004296c <main+0x3d4>)
1004284c:	0049      	lsls	r1, r1, #1
1004284e:	9200      	str	r2, [sp, #0]
10042850:	2000      	movs	r0, #0
10042852:	002a      	movs	r2, r5
10042854:	f000 ff78 	bl	10043748 <HAL_RADIO_SendPacketWithAck>
10042858:	2028      	movs	r0, #40	@ 0x28
1004285a:	f000 fb4b 	bl	10042ef4 <HAL_Delay>
1004285e:	f001 fd5f 	bl	10044320 <HAL_RADIO_TIMER_Tick>
10042862:	22a0      	movs	r2, #160	@ 0xa0
10042864:	2100      	movs	r1, #0
10042866:	0052      	lsls	r2, r2, #1
10042868:	9807      	ldr	r0, [sp, #28]
1004286a:	f002 f9f9 	bl	10044c60 <memset>
1004286e:	22a0      	movs	r2, #160	@ 0xa0
10042870:	2100      	movs	r1, #0
10042872:	0052      	lsls	r2, r2, #1
10042874:	483a      	ldr	r0, [pc, #232]	@ (10042960 <main+0x3c8>)
10042876:	f002 f9f3 	bl	10044c60 <memset>
1004287a:	2300      	movs	r3, #0
1004287c:	9a06      	ldr	r2, [sp, #24]
1004287e:	7013      	strb	r3, [r2, #0]
10042880:	e78a      	b.n	10042798 <main+0x200>
10042882:	231d      	movs	r3, #29
10042884:	4c2f      	ldr	r4, [pc, #188]	@ (10042944 <main+0x3ac>)
10042886:	21c8      	movs	r1, #200	@ 0xc8
10042888:	7023      	strb	r3, [r4, #0]
1004288a:	4b38      	ldr	r3, [pc, #224]	@ (1004296c <main+0x3d4>)
1004288c:	4f35      	ldr	r7, [pc, #212]	@ (10042964 <main+0x3cc>)
1004288e:	9305      	str	r3, [sp, #20]
10042890:	23ff      	movs	r3, #255	@ 0xff
10042892:	4e35      	ldr	r6, [pc, #212]	@ (10042968 <main+0x3d0>)
10042894:	0022      	movs	r2, r4
10042896:	0049      	lsls	r1, r1, #1
10042898:	9301      	str	r3, [sp, #4]
1004289a:	9702      	str	r7, [sp, #8]
1004289c:	9b05      	ldr	r3, [sp, #20]
1004289e:	9600      	str	r6, [sp, #0]
100428a0:	f000 ff52 	bl	10043748 <HAL_RADIO_SendPacketWithAck>
100428a4:	2028      	movs	r0, #40	@ 0x28
100428a6:	f000 fb25 	bl	10042ef4 <HAL_Delay>
100428aa:	f001 fd39 	bl	10044320 <HAL_RADIO_TIMER_Tick>
100428ae:	7829      	ldrb	r1, [r5, #0]
100428b0:	4b2b      	ldr	r3, [pc, #172]	@ (10042960 <main+0x3c8>)
100428b2:	00ca      	lsls	r2, r1, #3
100428b4:	189b      	adds	r3, r3, r2
100428b6:	cb0c      	ldmia	r3, {r2, r3}
100428b8:	431a      	orrs	r2, r3
100428ba:	d014      	beq.n	100428e6 <main+0x34e>
100428bc:	481e      	ldr	r0, [pc, #120]	@ (10042938 <main+0x3a0>)
100428be:	f7ff fc13 	bl	100420e8 <DW1000_initiator>
100428c2:	23dd      	movs	r3, #221	@ 0xdd
100428c4:	21c8      	movs	r1, #200	@ 0xc8
100428c6:	7023      	strb	r3, [r4, #0]
100428c8:	3322      	adds	r3, #34	@ 0x22
100428ca:	7828      	ldrb	r0, [r5, #0]
100428cc:	0022      	movs	r2, r4
100428ce:	9301      	str	r3, [sp, #4]
100428d0:	0049      	lsls	r1, r1, #1
100428d2:	9b05      	ldr	r3, [sp, #20]
100428d4:	9702      	str	r7, [sp, #8]
100428d6:	9600      	str	r6, [sp, #0]
100428d8:	f000 ff36 	bl	10043748 <HAL_RADIO_SendPacketWithAck>
100428dc:	2028      	movs	r0, #40	@ 0x28
100428de:	f000 fb09 	bl	10042ef4 <HAL_Delay>
100428e2:	f001 fd1d 	bl	10044320 <HAL_RADIO_TIMER_Tick>
100428e6:	4b1a      	ldr	r3, [pc, #104]	@ (10042950 <main+0x3b8>)
100428e8:	7818      	ldrb	r0, [r3, #0]
100428ea:	3001      	adds	r0, #1
100428ec:	b2c0      	uxtb	r0, r0
100428ee:	e75b      	b.n	100427a8 <main+0x210>
100428f0:	2224      	movs	r2, #36	@ 0x24
100428f2:	a804      	add	r0, sp, #16
100428f4:	1880      	adds	r0, r0, r2
100428f6:	4662      	mov	r2, ip
100428f8:	5c82      	ldrb	r2, [r0, r2]
100428fa:	54ea      	strb	r2, [r5, r3]
100428fc:	3301      	adds	r3, #1
100428fe:	b2db      	uxtb	r3, r3
10042900:	e783      	b.n	1004280a <main+0x272>
10042902:	46c0      	nop			@ (mov r8, r8)
10042904:	48400000 	.word	0x48400000
10042908:	00001010 	.word	0x00001010
1004290c:	48100000 	.word	0x48100000
10042910:	48500000 	.word	0x48500000
10042914:	ffffefef 	.word	0xffffefef
10042918:	48500024 	.word	0x48500024
1004291c:	48500020 	.word	0x48500020
10042920:	fffffbff 	.word	0xfffffbff
10042924:	60001800 	.word	0x60001800
10042928:	200007ac 	.word	0x200007ac
1004292c:	41002000 	.word	0x41002000
10042930:	20000748 	.word	0x20000748
10042934:	41003000 	.word	0x41003000
10042938:	200009b4 	.word	0x200009b4
1004293c:	200009a6 	.word	0x200009a6
10042940:	10001ef0 	.word	0x10001ef0
10042944:	20000645 	.word	0x20000645
10042948:	88df88df 	.word	0x88df88df
1004294c:	20000442 	.word	0x20000442
10042950:	20000440 	.word	0x20000440
10042954:	20000441 	.word	0x20000441
10042958:	20000443 	.word	0x20000443
1004295c:	200001c0 	.word	0x200001c0
10042960:	20000300 	.word	0x20000300
10042964:	10043185 	.word	0x10043185
10042968:	00009c40 	.word	0x00009c40
1004296c:	20000544 	.word	0x20000544

10042970 <combine_to_uint64>:
10042970:	b5f8      	push	{r3, r4, r5, r6, r7, lr}
10042972:	2500      	movs	r5, #0
10042974:	2638      	movs	r6, #56	@ 0x38
10042976:	002f      	movs	r7, r5
10042978:	1844      	adds	r4, r0, r1
1004297a:	0032      	movs	r2, r6
1004297c:	7820      	ldrb	r0, [r4, #0]
1004297e:	2100      	movs	r1, #0
10042980:	3e08      	subs	r6, #8
10042982:	f7fd fc57 	bl	10040234 <__aeabi_llsl>
10042986:	0033      	movs	r3, r6
10042988:	4305      	orrs	r5, r0
1004298a:	430f      	orrs	r7, r1
1004298c:	3401      	adds	r4, #1
1004298e:	3308      	adds	r3, #8
10042990:	d1f3      	bne.n	1004297a <combine_to_uint64+0xa>
10042992:	0028      	movs	r0, r5
10042994:	0039      	movs	r1, r7
10042996:	bdf8      	pop	{r3, r4, r5, r6, r7, pc}

10042998 <HAL_RADIO_CallbackRcvOk>:
10042998:	b5f7      	push	{r0, r1, r2, r4, r5, r6, r7, lr}
1004299a:	4c38      	ldr	r4, [pc, #224]	@ (10042a7c <HAL_RADIO_CallbackRcvOk+0xe4>)
1004299c:	7823      	ldrb	r3, [r4, #0]
1004299e:	2b1d      	cmp	r3, #29
100429a0:	d164      	bne.n	10042a6c <HAL_RADIO_CallbackRcvOk+0xd4>
100429a2:	2102      	movs	r1, #2
100429a4:	0020      	movs	r0, r4
100429a6:	f7ff ffe3 	bl	10042970 <combine_to_uint64>
100429aa:	2300      	movs	r3, #0
100429ac:	4a34      	ldr	r2, [pc, #208]	@ (10042a80 <HAL_RADIO_CallbackRcvOk+0xe8>)
100429ae:	001d      	movs	r5, r3
100429b0:	0016      	movs	r6, r2
100429b2:	6837      	ldr	r7, [r6, #0]
100429b4:	4287      	cmp	r7, r0
100429b6:	d104      	bne.n	100429c2 <HAL_RADIO_CallbackRcvOk+0x2a>
100429b8:	6877      	ldr	r7, [r6, #4]
100429ba:	428f      	cmp	r7, r1
100429bc:	d101      	bne.n	100429c2 <HAL_RADIO_CallbackRcvOk+0x2a>
100429be:	3501      	adds	r5, #1
100429c0:	b2ed      	uxtb	r5, r5
100429c2:	3301      	adds	r3, #1
100429c4:	b2db      	uxtb	r3, r3
100429c6:	3608      	adds	r6, #8
100429c8:	2b27      	cmp	r3, #39	@ 0x27
100429ca:	d1f2      	bne.n	100429b2 <HAL_RADIO_CallbackRcvOk+0x1a>
100429cc:	2d00      	cmp	r5, #0
100429ce:	d104      	bne.n	100429da <HAL_RADIO_CallbackRcvOk+0x42>
100429d0:	4b2c      	ldr	r3, [pc, #176]	@ (10042a84 <HAL_RADIO_CallbackRcvOk+0xec>)
100429d2:	781b      	ldrb	r3, [r3, #0]
100429d4:	00db      	lsls	r3, r3, #3
100429d6:	18d3      	adds	r3, r2, r3
100429d8:	c303      	stmia	r3!, {r0, r1}
100429da:	2300      	movs	r3, #0
100429dc:	0019      	movs	r1, r3
100429de:	001f      	movs	r7, r3
100429e0:	4d29      	ldr	r5, [pc, #164]	@ (10042a88 <HAL_RADIO_CallbackRcvOk+0xf0>)
100429e2:	702b      	strb	r3, [r5, #0]
100429e4:	6810      	ldr	r0, [r2, #0]
100429e6:	6856      	ldr	r6, [r2, #4]
100429e8:	4330      	orrs	r0, r6
100429ea:	d002      	beq.n	100429f2 <HAL_RADIO_CallbackRcvOk+0x5a>
100429ec:	2301      	movs	r3, #1
100429ee:	3101      	adds	r1, #1
100429f0:	b2c9      	uxtb	r1, r1
100429f2:	3701      	adds	r7, #1
100429f4:	b2ff      	uxtb	r7, r7
100429f6:	3208      	adds	r2, #8
100429f8:	2f27      	cmp	r7, #39	@ 0x27
100429fa:	d1f3      	bne.n	100429e4 <HAL_RADIO_CallbackRcvOk+0x4c>
100429fc:	2b00      	cmp	r3, #0
100429fe:	d000      	beq.n	10042a02 <HAL_RADIO_CallbackRcvOk+0x6a>
10042a00:	7029      	strb	r1, [r5, #0]
10042a02:	7aa2      	ldrb	r2, [r4, #10]
10042a04:	7ae3      	ldrb	r3, [r4, #11]
10042a06:	0011      	movs	r1, r2
10042a08:	4319      	orrs	r1, r3
10042a0a:	d02f      	beq.n	10042a6c <HAL_RADIO_CallbackRcvOk+0xd4>
10042a0c:	2564      	movs	r5, #100	@ 0x64
10042a0e:	4355      	muls	r5, r2
10042a10:	18ed      	adds	r5, r5, r3
10042a12:	0028      	movs	r0, r5
10042a14:	f7fe fe6a 	bl	100416ec <__aeabi_ui2d>
10042a18:	0006      	movs	r6, r0
10042a1a:	0028      	movs	r0, r5
10042a1c:	4b19      	ldr	r3, [pc, #100]	@ (10042a84 <HAL_RADIO_CallbackRcvOk+0xec>)
10042a1e:	4c1b      	ldr	r4, [pc, #108]	@ (10042a8c <HAL_RADIO_CallbackRcvOk+0xf4>)
10042a20:	781b      	ldrb	r3, [r3, #0]
10042a22:	4368      	muls	r0, r5
10042a24:	00db      	lsls	r3, r3, #3
10042a26:	18e4      	adds	r4, r4, r3
10042a28:	000f      	movs	r7, r1
10042a2a:	f7fe fe5f 	bl	100416ec <__aeabi_ui2d>
10042a2e:	4a18      	ldr	r2, [pc, #96]	@ (10042a90 <HAL_RADIO_CallbackRcvOk+0xf8>)
10042a30:	4b18      	ldr	r3, [pc, #96]	@ (10042a94 <HAL_RADIO_CallbackRcvOk+0xfc>)
10042a32:	f7fd ffbb 	bl	100409ac <__aeabi_dmul>
10042a36:	4a18      	ldr	r2, [pc, #96]	@ (10042a98 <HAL_RADIO_CallbackRcvOk+0x100>)
10042a38:	9000      	str	r0, [sp, #0]
10042a3a:	9101      	str	r1, [sp, #4]
10042a3c:	4b17      	ldr	r3, [pc, #92]	@ (10042a9c <HAL_RADIO_CallbackRcvOk+0x104>)
10042a3e:	0030      	movs	r0, r6
10042a40:	0039      	movs	r1, r7
10042a42:	f7fd ffb3 	bl	100409ac <__aeabi_dmul>
10042a46:	4a16      	ldr	r2, [pc, #88]	@ (10042aa0 <HAL_RADIO_CallbackRcvOk+0x108>)
10042a48:	4b16      	ldr	r3, [pc, #88]	@ (10042aa4 <HAL_RADIO_CallbackRcvOk+0x10c>)
10042a4a:	f7fd fc4b 	bl	100402e4 <__aeabi_dadd>
10042a4e:	0002      	movs	r2, r0
10042a50:	000b      	movs	r3, r1
10042a52:	9800      	ldr	r0, [sp, #0]
10042a54:	9901      	ldr	r1, [sp, #4]
10042a56:	f7fd fc45 	bl	100402e4 <__aeabi_dadd>
10042a5a:	003b      	movs	r3, r7
10042a5c:	0032      	movs	r2, r6
10042a5e:	f7fd ffa5 	bl	100409ac <__aeabi_dmul>
10042a62:	f7fd fc21 	bl	100402a8 <__aeabi_d2uiz>
10042a66:	2300      	movs	r3, #0
10042a68:	6020      	str	r0, [r4, #0]
10042a6a:	6063      	str	r3, [r4, #4]
10042a6c:	2202      	movs	r2, #2
10042a6e:	2100      	movs	r1, #0
10042a70:	32ff      	adds	r2, #255	@ 0xff
10042a72:	4802      	ldr	r0, [pc, #8]	@ (10042a7c <HAL_RADIO_CallbackRcvOk+0xe4>)
10042a74:	f002 f8f4 	bl	10044c60 <memset>
10042a78:	bdf7      	pop	{r0, r1, r2, r4, r5, r6, r7, pc}
10042a7a:	46c0      	nop			@ (mov r8, r8)
10042a7c:	20000544 	.word	0x20000544
10042a80:	20000300 	.word	0x20000300
10042a84:	20000440 	.word	0x20000440
10042a88:	20000441 	.word	0x20000441
10042a8c:	200001c0 	.word	0x200001c0
10042a90:	eb1c432d 	.word	0xeb1c432d
10042a94:	bf1a36e2 	.word	0xbf1a36e2
10042a98:	93dd97f6 	.word	0x93dd97f6
10042a9c:	3f9a8587 	.word	0x3f9a8587
10042aa0:	00d1b717 	.word	0x00d1b717
10042aa4:	3fe102de 	.word	0x3fe102de

10042aa8 <HAL_GPIO_EXTI_Callback>:
10042aa8:	2201      	movs	r2, #1
10042aaa:	4b01      	ldr	r3, [pc, #4]	@ (10042ab0 <HAL_GPIO_EXTI_Callback+0x8>)
10042aac:	701a      	strb	r2, [r3, #0]
10042aae:	4770      	bx	lr
10042ab0:	20000442 	.word	0x20000442

10042ab4 <Error_Handler>:
10042ab4:	b672      	cpsid	i
10042ab6:	e7fe      	b.n	10042ab6 <Error_Handler+0x2>

10042ab8 <HAL_MspInit>:
10042ab8:	2180      	movs	r1, #128	@ 0x80
10042aba:	4b06      	ldr	r3, [pc, #24]	@ (10042ad4 <HAL_MspInit+0x1c>)
10042abc:	0049      	lsls	r1, r1, #1
10042abe:	6d5a      	ldr	r2, [r3, #84]	@ 0x54
10042ac0:	b082      	sub	sp, #8
10042ac2:	430a      	orrs	r2, r1
10042ac4:	655a      	str	r2, [r3, #84]	@ 0x54
10042ac6:	6d5b      	ldr	r3, [r3, #84]	@ 0x54
10042ac8:	400b      	ands	r3, r1
10042aca:	9301      	str	r3, [sp, #4]
10042acc:	9b01      	ldr	r3, [sp, #4]
10042ace:	b002      	add	sp, #8
10042ad0:	4770      	bx	lr
10042ad2:	46c0      	nop			@ (mov r8, r8)
10042ad4:	48400000 	.word	0x48400000

10042ad8 <HAL_RADIO_MspInit>:
10042ad8:	b510      	push	{r4, lr}
10042ada:	0004      	movs	r4, r0
10042adc:	b088      	sub	sp, #32
10042ade:	2218      	movs	r2, #24
10042ae0:	2100      	movs	r1, #0
10042ae2:	a802      	add	r0, sp, #8
10042ae4:	f002 f8bc 	bl	10044c60 <memset>
10042ae8:	23c0      	movs	r3, #192	@ 0xc0
10042aea:	6822      	ldr	r2, [r4, #0]
10042aec:	05db      	lsls	r3, r3, #23
10042aee:	429a      	cmp	r2, r3
10042af0:	d12b      	bne.n	10042b4a <HAL_RADIO_MspInit+0x72>
10042af2:	2401      	movs	r4, #1
10042af4:	2302      	movs	r3, #2
10042af6:	a802      	add	r0, sp, #8
10042af8:	9402      	str	r4, [sp, #8]
10042afa:	9306      	str	r3, [sp, #24]
10042afc:	f001 ffee 	bl	10044adc <HAL_RCCEx_PeriphCLKConfig>
10042b00:	2800      	cmp	r0, #0
10042b02:	d001      	beq.n	10042b08 <HAL_RADIO_MspInit+0x30>
10042b04:	f7ff ffd6 	bl	10042ab4 <Error_Handler>
10042b08:	4b11      	ldr	r3, [pc, #68]	@ (10042b50 <HAL_RADIO_MspInit+0x78>)
10042b0a:	6e1a      	ldr	r2, [r3, #96]	@ 0x60
10042b0c:	4222      	tst	r2, r4
10042b0e:	d10c      	bne.n	10042b2a <HAL_RADIO_MspInit+0x52>
10042b10:	6c1a      	ldr	r2, [r3, #64]	@ 0x40
10042b12:	4322      	orrs	r2, r4
10042b14:	641a      	str	r2, [r3, #64]	@ 0x40
10042b16:	6c1a      	ldr	r2, [r3, #64]	@ 0x40
10042b18:	43a2      	bics	r2, r4
10042b1a:	641a      	str	r2, [r3, #64]	@ 0x40
10042b1c:	6e1a      	ldr	r2, [r3, #96]	@ 0x60
10042b1e:	4322      	orrs	r2, r4
10042b20:	661a      	str	r2, [r3, #96]	@ 0x60
10042b22:	6e1b      	ldr	r3, [r3, #96]	@ 0x60
10042b24:	4023      	ands	r3, r4
10042b26:	9301      	str	r3, [sp, #4]
10042b28:	9b01      	ldr	r3, [sp, #4]
10042b2a:	2200      	movs	r2, #0
10042b2c:	2012      	movs	r0, #18
10042b2e:	0011      	movs	r1, r2
10042b30:	f000 f9f2 	bl	10042f18 <HAL_NVIC_SetPriority>
10042b34:	2012      	movs	r0, #18
10042b36:	f000 fa19 	bl	10042f6c <HAL_NVIC_EnableIRQ>
10042b3a:	2200      	movs	r2, #0
10042b3c:	2019      	movs	r0, #25
10042b3e:	0011      	movs	r1, r2
10042b40:	f000 f9ea 	bl	10042f18 <HAL_NVIC_SetPriority>
10042b44:	2019      	movs	r0, #25
10042b46:	f000 fa11 	bl	10042f6c <HAL_NVIC_EnableIRQ>
10042b4a:	b008      	add	sp, #32
10042b4c:	bd10      	pop	{r4, pc}
10042b4e:	46c0      	nop			@ (mov r8, r8)
10042b50:	48400000 	.word	0x48400000

10042b54 <HAL_SPI_MspInit>:
10042b54:	b510      	push	{r4, lr}
10042b56:	0004      	movs	r4, r0
10042b58:	b08a      	sub	sp, #40	@ 0x28
10042b5a:	2214      	movs	r2, #20
10042b5c:	2100      	movs	r1, #0
10042b5e:	a805      	add	r0, sp, #20
10042b60:	f002 f87e 	bl	10044c60 <memset>
10042b64:	6823      	ldr	r3, [r4, #0]
10042b66:	4a28      	ldr	r2, [pc, #160]	@ (10042c08 <HAL_SPI_MspInit+0xb4>)
10042b68:	4293      	cmp	r3, r2
10042b6a:	d125      	bne.n	10042bb8 <HAL_SPI_MspInit+0x64>
10042b6c:	2101      	movs	r1, #1
10042b6e:	4b27      	ldr	r3, [pc, #156]	@ (10042c0c <HAL_SPI_MspInit+0xb8>)
10042b70:	2090      	movs	r0, #144	@ 0x90
10042b72:	6d9a      	ldr	r2, [r3, #88]	@ 0x58
10042b74:	05c0      	lsls	r0, r0, #23
10042b76:	430a      	orrs	r2, r1
10042b78:	659a      	str	r2, [r3, #88]	@ 0x58
10042b7a:	6d9a      	ldr	r2, [r3, #88]	@ 0x58
10042b7c:	400a      	ands	r2, r1
10042b7e:	9202      	str	r2, [sp, #8]
10042b80:	9a02      	ldr	r2, [sp, #8]
10042b82:	6d1a      	ldr	r2, [r3, #80]	@ 0x50
10042b84:	3103      	adds	r1, #3
10042b86:	430a      	orrs	r2, r1
10042b88:	651a      	str	r2, [r3, #80]	@ 0x50
10042b8a:	6d1b      	ldr	r3, [r3, #80]	@ 0x50
10042b8c:	400b      	ands	r3, r1
10042b8e:	9301      	str	r3, [sp, #4]
10042b90:	9b01      	ldr	r3, [sp, #4]
10042b92:	23e0      	movs	r3, #224	@ 0xe0
10042b94:	021b      	lsls	r3, r3, #8
10042b96:	9305      	str	r3, [sp, #20]
10042b98:	2302      	movs	r3, #2
10042b9a:	a905      	add	r1, sp, #20
10042b9c:	9306      	str	r3, [sp, #24]
10042b9e:	9309      	str	r3, [sp, #36]	@ 0x24
10042ba0:	f000 fa0a 	bl	10042fb8 <HAL_GPIO_Init>
10042ba4:	4b1a      	ldr	r3, [pc, #104]	@ (10042c10 <HAL_SPI_MspInit+0xbc>)
10042ba6:	491b      	ldr	r1, [pc, #108]	@ (10042c14 <HAL_SPI_MspInit+0xc0>)
10042ba8:	6a1a      	ldr	r2, [r3, #32]
10042baa:	400a      	ands	r2, r1
10042bac:	621a      	str	r2, [r3, #32]
10042bae:	6a5a      	ldr	r2, [r3, #36]	@ 0x24
10042bb0:	400a      	ands	r2, r1
10042bb2:	625a      	str	r2, [r3, #36]	@ 0x24
10042bb4:	b00a      	add	sp, #40	@ 0x28
10042bb6:	bd10      	pop	{r4, pc}
10042bb8:	4a17      	ldr	r2, [pc, #92]	@ (10042c18 <HAL_SPI_MspInit+0xc4>)
10042bba:	4293      	cmp	r3, r2
10042bbc:	d1fa      	bne.n	10042bb4 <HAL_SPI_MspInit+0x60>
10042bbe:	2180      	movs	r1, #128	@ 0x80
10042bc0:	4b12      	ldr	r3, [pc, #72]	@ (10042c0c <HAL_SPI_MspInit+0xb8>)
10042bc2:	0149      	lsls	r1, r1, #5
10042bc4:	6d9a      	ldr	r2, [r3, #88]	@ 0x58
10042bc6:	2090      	movs	r0, #144	@ 0x90
10042bc8:	430a      	orrs	r2, r1
10042bca:	659a      	str	r2, [r3, #88]	@ 0x58
10042bcc:	6d9a      	ldr	r2, [r3, #88]	@ 0x58
10042bce:	24e0      	movs	r4, #224	@ 0xe0
10042bd0:	400a      	ands	r2, r1
10042bd2:	2104      	movs	r1, #4
10042bd4:	9204      	str	r2, [sp, #16]
10042bd6:	9a04      	ldr	r2, [sp, #16]
10042bd8:	6d1a      	ldr	r2, [r3, #80]	@ 0x50
10042bda:	05c0      	lsls	r0, r0, #23
10042bdc:	430a      	orrs	r2, r1
10042bde:	651a      	str	r2, [r3, #80]	@ 0x50
10042be0:	6d1b      	ldr	r3, [r3, #80]	@ 0x50
10042be2:	9405      	str	r4, [sp, #20]
10042be4:	400b      	ands	r3, r1
10042be6:	9303      	str	r3, [sp, #12]
10042be8:	9b03      	ldr	r3, [sp, #12]
10042bea:	2302      	movs	r3, #2
10042bec:	a905      	add	r1, sp, #20
10042bee:	9306      	str	r3, [sp, #24]
10042bf0:	3b01      	subs	r3, #1
10042bf2:	9309      	str	r3, [sp, #36]	@ 0x24
10042bf4:	f000 f9e0 	bl	10042fb8 <HAL_GPIO_Init>
10042bf8:	4b05      	ldr	r3, [pc, #20]	@ (10042c10 <HAL_SPI_MspInit+0xbc>)
10042bfa:	6a1a      	ldr	r2, [r3, #32]
10042bfc:	43a2      	bics	r2, r4
10042bfe:	621a      	str	r2, [r3, #32]
10042c00:	6a5a      	ldr	r2, [r3, #36]	@ 0x24
10042c02:	43a2      	bics	r2, r4
10042c04:	e7d5      	b.n	10042bb2 <HAL_SPI_MspInit+0x5e>
10042c06:	46c0      	nop			@ (mov r8, r8)
10042c08:	41002000 	.word	0x41002000
10042c0c:	48400000 	.word	0x48400000
10042c10:	48500000 	.word	0x48500000
10042c14:	ffff1fff 	.word	0xffff1fff
10042c18:	41003000 	.word	0x41003000

10042c1c <NMI_Handler>:
10042c1c:	e7fe      	b.n	10042c1c <NMI_Handler>

10042c1e <HardFault_Handler>:
10042c1e:	e7fe      	b.n	10042c1e <HardFault_Handler>

10042c20 <SVC_Handler>:
10042c20:	4770      	bx	lr

10042c22 <PendSV_Handler>:
10042c22:	4770      	bx	lr

10042c24 <SysTick_Handler>:
10042c24:	b510      	push	{r4, lr}
10042c26:	f000 f94d 	bl	10042ec4 <HAL_IncTick>
10042c2a:	bd10      	pop	{r4, pc}

10042c2c <GPIOB_IRQHandler>:
10042c2c:	b510      	push	{r4, lr}
10042c2e:	4c05      	ldr	r4, [pc, #20]	@ (10042c44 <GPIOB_IRQHandler+0x18>)
10042c30:	2120      	movs	r1, #32
10042c32:	0020      	movs	r0, r4
10042c34:	f000 fa61 	bl	100430fa <HAL_GPIO_EXTI_IRQHandler>
10042c38:	2101      	movs	r1, #1
10042c3a:	0020      	movs	r0, r4
10042c3c:	f000 fa5d 	bl	100430fa <HAL_GPIO_EXTI_IRQHandler>
10042c40:	bd10      	pop	{r4, pc}
10042c42:	46c0      	nop			@ (mov r8, r8)
10042c44:	48100000 	.word	0x48100000

10042c48 <RADIO_TIMER_CPU_WKUP_IRQHandler>:
10042c48:	b510      	push	{r4, lr}
10042c4a:	f001 fd29 	bl	100446a0 <HAL_RADIO_TIMER_CPU_WKUP_IRQHandler>
10042c4e:	bd10      	pop	{r4, pc}

10042c50 <RADIO_TIMER_TXRX_WKUP_IRQHandler>:
10042c50:	b510      	push	{r4, lr}
10042c52:	f001 fd2b 	bl	100446ac <HAL_RADIO_TIMER_TXRX_WKUP_IRQHandler>
10042c56:	bd10      	pop	{r4, pc}

10042c58 <RADIO_TIMER_ERROR_IRQHandler>:
10042c58:	b510      	push	{r4, lr}
10042c5a:	f001 fd2d 	bl	100446b8 <HAL_RADIO_TIMER_ERROR_IRQHandler>
10042c5e:	bd10      	pop	{r4, pc}

10042c60 <RADIO_TXRX_IRQHandler>:
10042c60:	b510      	push	{r4, lr}
10042c62:	f000 fdd9 	bl	10043818 <HAL_RADIO_TXRX_IRQHandler>
10042c66:	bd10      	pop	{r4, pc}

10042c68 <RADIO_TXRX_SEQ_IRQHandler>:
10042c68:	b510      	push	{r4, lr}
10042c6a:	f000 fe77 	bl	1004395c <HAL_RADIO_TXRX_SEQ_IRQHandler>
10042c6e:	bd10      	pop	{r4, pc}

10042c70 <SystemCoreClockUpdate>:
10042c70:	4b07      	ldr	r3, [pc, #28]	@ (10042c90 <SystemCoreClockUpdate+0x20>)
10042c72:	689a      	ldr	r2, [r3, #8]
10042c74:	689b      	ldr	r3, [r3, #8]
10042c76:	061b      	lsls	r3, r3, #24
10042c78:	0f5b      	lsrs	r3, r3, #29
10042c7a:	0792      	lsls	r2, r2, #30
10042c7c:	d506      	bpl.n	10042c8c <SystemCoreClockUpdate+0x1c>
10042c7e:	4a05      	ldr	r2, [pc, #20]	@ (10042c94 <SystemCoreClockUpdate+0x24>)
10042c80:	3b01      	subs	r3, #1
10042c82:	40da      	lsrs	r2, r3
10042c84:	0013      	movs	r3, r2
10042c86:	4a04      	ldr	r2, [pc, #16]	@ (10042c98 <SystemCoreClockUpdate+0x28>)
10042c88:	6013      	str	r3, [r2, #0]
10042c8a:	4770      	bx	lr
10042c8c:	4a03      	ldr	r2, [pc, #12]	@ (10042c9c <SystemCoreClockUpdate+0x2c>)
10042c8e:	e7f8      	b.n	10042c82 <SystemCoreClockUpdate+0x12>
10042c90:	48400000 	.word	0x48400000
10042c94:	01e84800 	.word	0x01e84800
10042c98:	200009c8 	.word	0x200009c8
10042c9c:	03d09000 	.word	0x03d09000

10042ca0 <CPUcontextRestore>:
10042ca0:	4770      	bx	lr
	...

10042ca4 <SystemInit>:
10042ca4:	b5f8      	push	{r3, r4, r5, r6, r7, lr}
10042ca6:	4b44      	ldr	r3, [pc, #272]	@ (10042db8 <SystemInit+0x114>)
10042ca8:	4a44      	ldr	r2, [pc, #272]	@ (10042dbc <SystemInit+0x118>)
10042caa:	6819      	ldr	r1, [r3, #0]
10042cac:	4c44      	ldr	r4, [pc, #272]	@ (10042dc0 <SystemInit+0x11c>)
10042cae:	4b45      	ldr	r3, [pc, #276]	@ (10042dc4 <SystemInit+0x120>)
10042cb0:	2900      	cmp	r1, #0
10042cb2:	d111      	bne.n	10042cd8 <SystemInit+0x34>
10042cb4:	6919      	ldr	r1, [r3, #16]
10042cb6:	2900      	cmp	r1, #0
10042cb8:	d102      	bne.n	10042cc0 <SystemInit+0x1c>
10042cba:	6b99      	ldr	r1, [r3, #56]	@ 0x38
10042cbc:	2900      	cmp	r1, #0
10042cbe:	d00b      	beq.n	10042cd8 <SystemInit+0x34>
10042cc0:	2301      	movs	r3, #1
10042cc2:	6093      	str	r3, [r2, #8]
10042cc4:	f7ff ffec 	bl	10042ca0 <CPUcontextRestore>
10042cc8:	f3bf 8f4f 	dsb	sy
10042ccc:	4b3e      	ldr	r3, [pc, #248]	@ (10042dc8 <SystemInit+0x124>)
10042cce:	60e3      	str	r3, [r4, #12]
10042cd0:	f3bf 8f4f 	dsb	sy
10042cd4:	46c0      	nop			@ (mov r8, r8)
10042cd6:	e7fd      	b.n	10042cd4 <SystemInit+0x30>
10042cd8:	493c      	ldr	r1, [pc, #240]	@ (10042dcc <SystemInit+0x128>)
10042cda:	60a1      	str	r1, [r4, #8]
10042cdc:	68a1      	ldr	r1, [r4, #8]
10042cde:	6111      	str	r1, [r2, #16]
10042ce0:	2220      	movs	r2, #32
10042ce2:	6859      	ldr	r1, [r3, #4]
10042ce4:	430a      	orrs	r2, r1
10042ce6:	605a      	str	r2, [r3, #4]
10042ce8:	2240      	movs	r2, #64	@ 0x40
10042cea:	6859      	ldr	r1, [r3, #4]
10042cec:	430a      	orrs	r2, r1
10042cee:	605a      	str	r2, [r3, #4]
10042cf0:	2280      	movs	r2, #128	@ 0x80
10042cf2:	6859      	ldr	r1, [r3, #4]
10042cf4:	430a      	orrs	r2, r1
10042cf6:	605a      	str	r2, [r3, #4]
10042cf8:	2204      	movs	r2, #4
10042cfa:	6959      	ldr	r1, [r3, #20]
10042cfc:	4211      	tst	r1, r2
10042cfe:	d0fc      	beq.n	10042cfa <SystemInit+0x56>
10042d00:	2130      	movs	r1, #48	@ 0x30
10042d02:	69da      	ldr	r2, [r3, #28]
10042d04:	4832      	ldr	r0, [pc, #200]	@ (10042dd0 <SystemInit+0x12c>)
10042d06:	438a      	bics	r2, r1
10042d08:	3910      	subs	r1, #16
10042d0a:	430a      	orrs	r2, r1
10042d0c:	61da      	str	r2, [r3, #28]
10042d0e:	69da      	ldr	r2, [r3, #28]
10042d10:	4002      	ands	r2, r0
10042d12:	61da      	str	r2, [r3, #28]
10042d14:	2280      	movs	r2, #128	@ 0x80
10042d16:	69d8      	ldr	r0, [r3, #28]
10042d18:	0052      	lsls	r2, r2, #1
10042d1a:	4302      	orrs	r2, r0
10042d1c:	61da      	str	r2, [r3, #28]
10042d1e:	4b2d      	ldr	r3, [pc, #180]	@ (10042dd4 <SystemInit+0x130>)
10042d20:	681a      	ldr	r2, [r3, #0]
10042d22:	4b2d      	ldr	r3, [pc, #180]	@ (10042dd8 <SystemInit+0x134>)
10042d24:	429a      	cmp	r2, r3
10042d26:	d02d      	beq.n	10042d84 <SystemInit+0xe0>
10042d28:	221e      	movs	r2, #30
10042d2a:	4b2c      	ldr	r3, [pc, #176]	@ (10042ddc <SystemInit+0x138>)
10042d2c:	6818      	ldr	r0, [r3, #0]
10042d2e:	4390      	bics	r0, r2
10042d30:	3a0e      	subs	r2, #14
10042d32:	4302      	orrs	r2, r0
10042d34:	601a      	str	r2, [r3, #0]
10042d36:	2201      	movs	r2, #1
10042d38:	6818      	ldr	r0, [r3, #0]
10042d3a:	4302      	orrs	r2, r0
10042d3c:	601a      	str	r2, [r3, #0]
10042d3e:	4a28      	ldr	r2, [pc, #160]	@ (10042de0 <SystemInit+0x13c>)
10042d40:	4828      	ldr	r0, [pc, #160]	@ (10042de4 <SystemInit+0x140>)
10042d42:	68d4      	ldr	r4, [r2, #12]
10042d44:	4004      	ands	r4, r0
10042d46:	20f0      	movs	r0, #240	@ 0xf0
10042d48:	0540      	lsls	r0, r0, #21
10042d4a:	4320      	orrs	r0, r4
10042d4c:	60d0      	str	r0, [r2, #12]
10042d4e:	2080      	movs	r0, #128	@ 0x80
10042d50:	68d4      	ldr	r4, [r2, #12]
10042d52:	0400      	lsls	r0, r0, #16
10042d54:	4320      	orrs	r0, r4
10042d56:	60d0      	str	r0, [r2, #12]
10042d58:	6818      	ldr	r0, [r3, #0]
10042d5a:	4a23      	ldr	r2, [pc, #140]	@ (10042de8 <SystemInit+0x144>)
10042d5c:	4010      	ands	r0, r2
10042d5e:	2280      	movs	r2, #128	@ 0x80
10042d60:	0092      	lsls	r2, r2, #2
10042d62:	4302      	orrs	r2, r0
10042d64:	601a      	str	r2, [r3, #0]
10042d66:	681a      	ldr	r2, [r3, #0]
10042d68:	4311      	orrs	r1, r2
10042d6a:	6019      	str	r1, [r3, #0]
10042d6c:	6819      	ldr	r1, [r3, #0]
10042d6e:	4a1f      	ldr	r2, [pc, #124]	@ (10042dec <SystemInit+0x148>)
10042d70:	4011      	ands	r1, r2
10042d72:	22c0      	movs	r2, #192	@ 0xc0
10042d74:	0152      	lsls	r2, r2, #5
10042d76:	430a      	orrs	r2, r1
10042d78:	601a      	str	r2, [r3, #0]
10042d7a:	2280      	movs	r2, #128	@ 0x80
10042d7c:	6819      	ldr	r1, [r3, #0]
10042d7e:	00d2      	lsls	r2, r2, #3
10042d80:	430a      	orrs	r2, r1
10042d82:	601a      	str	r2, [r3, #0]
10042d84:	20c0      	movs	r0, #192	@ 0xc0
10042d86:	2200      	movs	r2, #0
10042d88:	2603      	movs	r6, #3
10042d8a:	25ff      	movs	r5, #255	@ 0xff
10042d8c:	0080      	lsls	r0, r0, #2
10042d8e:	0017      	movs	r7, r2
10042d90:	002c      	movs	r4, r5
10042d92:	4037      	ands	r7, r6
10042d94:	00ff      	lsls	r7, r7, #3
10042d96:	40bc      	lsls	r4, r7
10042d98:	4915      	ldr	r1, [pc, #84]	@ (10042df0 <SystemInit+0x14c>)
10042d9a:	0893      	lsrs	r3, r2, #2
10042d9c:	009b      	lsls	r3, r3, #2
10042d9e:	185b      	adds	r3, r3, r1
10042da0:	5819      	ldr	r1, [r3, r0]
10042da2:	3201      	adds	r2, #1
10042da4:	43a1      	bics	r1, r4
10042da6:	24c0      	movs	r4, #192	@ 0xc0
10042da8:	40bc      	lsls	r4, r7
10042daa:	4321      	orrs	r1, r4
10042dac:	5019      	str	r1, [r3, r0]
10042dae:	2a20      	cmp	r2, #32
10042db0:	d1ed      	bne.n	10042d8e <SystemInit+0xea>
10042db2:	b662      	cpsie	i
10042db4:	bdf8      	pop	{r3, r4, r5, r6, r7, pc}
10042db6:	46c0      	nop			@ (mov r8, r8)
10042db8:	48400094 	.word	0x48400094
10042dbc:	20000004 	.word	0x20000004
10042dc0:	e000ed00 	.word	0xe000ed00
10042dc4:	48500000 	.word	0x48500000
10042dc8:	05fa0004 	.word	0x05fa0004
10042dcc:	10040000 	.word	0x10040000
10042dd0:	fffffbff 	.word	0xfffffbff
10042dd4:	10001ef8 	.word	0x10001ef8
10042dd8:	fcbceccc 	.word	0xfcbceccc
10042ddc:	48500094 	.word	0x48500094
10042de0:	48400000 	.word	0x48400000
10042de4:	c0ffffff 	.word	0xc0ffffff
10042de8:	fffffc3f 	.word	0xfffffc3f
10042dec:	ffffc7ff 	.word	0xffffc7ff
10042df0:	e000e100 	.word	0xe000e100

10042df4 <Reset_Handler>:
10042df4:	4810      	ldr	r0, [pc, #64]	@ (10042e38 <LoopForever+0x2>)
10042df6:	4685      	mov	sp, r0
10042df8:	f7ff ff54 	bl	10042ca4 <SystemInit>
10042dfc:	2100      	movs	r1, #0
10042dfe:	e003      	b.n	10042e08 <LoopCopyDataInit>

10042e00 <CopyDataInit>:
10042e00:	4b0e      	ldr	r3, [pc, #56]	@ (10042e3c <LoopForever+0x6>)
10042e02:	585b      	ldr	r3, [r3, r1]
10042e04:	5043      	str	r3, [r0, r1]
10042e06:	3104      	adds	r1, #4

10042e08 <LoopCopyDataInit>:
10042e08:	480d      	ldr	r0, [pc, #52]	@ (10042e40 <LoopForever+0xa>)
10042e0a:	4b0e      	ldr	r3, [pc, #56]	@ (10042e44 <LoopForever+0xe>)
10042e0c:	1842      	adds	r2, r0, r1
10042e0e:	429a      	cmp	r2, r3
10042e10:	d3f6      	bcc.n	10042e00 <CopyDataInit>
10042e12:	4a0d      	ldr	r2, [pc, #52]	@ (10042e48 <LoopForever+0x12>)
10042e14:	e002      	b.n	10042e1c <LoopFillZerobss>

10042e16 <FillZerobss>:
10042e16:	2300      	movs	r3, #0
10042e18:	6013      	str	r3, [r2, #0]
10042e1a:	3204      	adds	r2, #4

10042e1c <LoopFillZerobss>:
10042e1c:	4b0b      	ldr	r3, [pc, #44]	@ (10042e4c <LoopForever+0x16>)
10042e1e:	429a      	cmp	r2, r3
10042e20:	d3f9      	bcc.n	10042e16 <FillZerobss>
10042e22:	4a0b      	ldr	r2, [pc, #44]	@ (10042e50 <LoopForever+0x1a>)
10042e24:	e002      	b.n	10042e2c <LoopFillZeroBlueRam>

10042e26 <FillZerobssram>:
10042e26:	2300      	movs	r3, #0
10042e28:	6013      	str	r3, [r2, #0]
10042e2a:	3204      	adds	r2, #4

10042e2c <LoopFillZeroBlueRam>:
10042e2c:	4b09      	ldr	r3, [pc, #36]	@ (10042e54 <LoopForever+0x1e>)
10042e2e:	429a      	cmp	r2, r3
10042e30:	d3f9      	bcc.n	10042e26 <FillZerobssram>
10042e32:	f7ff fbb1 	bl	10042598 <main>

10042e36 <LoopForever>:
10042e36:	e7fe      	b.n	10042e36 <LoopForever>
10042e38:	20010000 	.word	0x20010000
10042e3c:	10044c94 	.word	0x10044c94
10042e40:	20000970 	.word	0x20000970
10042e44:	200009d8 	.word	0x200009d8
10042e48:	2000017c 	.word	0x2000017c
10042e4c:	20000970 	.word	0x20000970
10042e50:	200000c0 	.word	0x200000c0
10042e54:	2000017c 	.word	0x2000017c

10042e58 <ADC_IRQHandler>:
10042e58:	e7fe      	b.n	10042e58 <ADC_IRQHandler>
	...

10042e5c <HAL_InitTick>:
10042e5c:	b570      	push	{r4, r5, r6, lr}
10042e5e:	4e11      	ldr	r6, [pc, #68]	@ (10042ea4 <HAL_InitTick+0x48>)
10042e60:	0005      	movs	r5, r0
10042e62:	7833      	ldrb	r3, [r6, #0]
10042e64:	2b00      	cmp	r3, #0
10042e66:	d101      	bne.n	10042e6c <HAL_InitTick+0x10>
10042e68:	2001      	movs	r0, #1
10042e6a:	bd70      	pop	{r4, r5, r6, pc}
10042e6c:	f001 fe30 	bl	10044ad0 <HAL_RCC_GetSysClockFreq>
10042e70:	0004      	movs	r4, r0
10042e72:	20fa      	movs	r0, #250	@ 0xfa
10042e74:	7831      	ldrb	r1, [r6, #0]
10042e76:	0080      	lsls	r0, r0, #2
10042e78:	f7fd f944 	bl	10040104 <__udivsi3>
10042e7c:	0001      	movs	r1, r0
10042e7e:	0020      	movs	r0, r4
10042e80:	f7fd f940 	bl	10040104 <__udivsi3>
10042e84:	f000 f87e 	bl	10042f84 <HAL_SYSTICK_Config>
10042e88:	1e04      	subs	r4, r0, #0
10042e8a:	d1ed      	bne.n	10042e68 <HAL_InitTick+0xc>
10042e8c:	2d03      	cmp	r5, #3
10042e8e:	d8eb      	bhi.n	10042e68 <HAL_InitTick+0xc>
10042e90:	0002      	movs	r2, r0
10042e92:	2001      	movs	r0, #1
10042e94:	0029      	movs	r1, r5
10042e96:	4240      	negs	r0, r0
10042e98:	f000 f83e 	bl	10042f18 <HAL_NVIC_SetPriority>
10042e9c:	4b02      	ldr	r3, [pc, #8]	@ (10042ea8 <HAL_InitTick+0x4c>)
10042e9e:	0020      	movs	r0, r4
10042ea0:	601d      	str	r5, [r3, #0]
10042ea2:	e7e2      	b.n	10042e6a <HAL_InitTick+0xe>
10042ea4:	200009cc 	.word	0x200009cc
10042ea8:	200009d0 	.word	0x200009d0

10042eac <HAL_Init>:
10042eac:	b510      	push	{r4, lr}
10042eae:	2003      	movs	r0, #3
10042eb0:	f7ff ffd4 	bl	10042e5c <HAL_InitTick>
10042eb4:	1e04      	subs	r4, r0, #0
10042eb6:	d103      	bne.n	10042ec0 <HAL_Init+0x14>
10042eb8:	f7ff fdfe 	bl	10042ab8 <HAL_MspInit>
10042ebc:	0020      	movs	r0, r4
10042ebe:	bd10      	pop	{r4, pc}
10042ec0:	2401      	movs	r4, #1
10042ec2:	e7fb      	b.n	10042ebc <HAL_Init+0x10>

10042ec4 <HAL_IncTick>:
10042ec4:	4a03      	ldr	r2, [pc, #12]	@ (10042ed4 <HAL_IncTick+0x10>)
10042ec6:	4b04      	ldr	r3, [pc, #16]	@ (10042ed8 <HAL_IncTick+0x14>)
10042ec8:	6811      	ldr	r1, [r2, #0]
10042eca:	781b      	ldrb	r3, [r3, #0]
10042ecc:	185b      	adds	r3, r3, r1
10042ece:	6013      	str	r3, [r2, #0]
10042ed0:	4770      	bx	lr
10042ed2:	46c0      	nop			@ (mov r8, r8)
10042ed4:	20000810 	.word	0x20000810
10042ed8:	200009cc 	.word	0x200009cc

10042edc <HAL_GetTick>:
10042edc:	4b01      	ldr	r3, [pc, #4]	@ (10042ee4 <HAL_GetTick+0x8>)
10042ede:	6818      	ldr	r0, [r3, #0]
10042ee0:	4770      	bx	lr
10042ee2:	46c0      	nop			@ (mov r8, r8)
10042ee4:	20000810 	.word	0x20000810

10042ee8 <HAL_GetTickPrio>:
10042ee8:	4b01      	ldr	r3, [pc, #4]	@ (10042ef0 <HAL_GetTickPrio+0x8>)
10042eea:	6818      	ldr	r0, [r3, #0]
10042eec:	4770      	bx	lr
10042eee:	46c0      	nop			@ (mov r8, r8)
10042ef0:	200009d0 	.word	0x200009d0

10042ef4 <HAL_Delay>:
10042ef4:	b570      	push	{r4, r5, r6, lr}
10042ef6:	0004      	movs	r4, r0
10042ef8:	f7ff fff0 	bl	10042edc <HAL_GetTick>
10042efc:	0005      	movs	r5, r0
10042efe:	1c63      	adds	r3, r4, #1
10042f00:	d002      	beq.n	10042f08 <HAL_Delay+0x14>
10042f02:	4b04      	ldr	r3, [pc, #16]	@ (10042f14 <HAL_Delay+0x20>)
10042f04:	781b      	ldrb	r3, [r3, #0]
10042f06:	18e4      	adds	r4, r4, r3
10042f08:	f7ff ffe8 	bl	10042edc <HAL_GetTick>
10042f0c:	1b40      	subs	r0, r0, r5
10042f0e:	42a0      	cmp	r0, r4
10042f10:	d3fa      	bcc.n	10042f08 <HAL_Delay+0x14>
10042f12:	bd70      	pop	{r4, r5, r6, pc}
10042f14:	200009cc 	.word	0x200009cc

10042f18 <HAL_NVIC_SetPriority>:
10042f18:	b510      	push	{r4, lr}
10042f1a:	24ff      	movs	r4, #255	@ 0xff
10042f1c:	2203      	movs	r2, #3
10042f1e:	000b      	movs	r3, r1
10042f20:	0021      	movs	r1, r4
10042f22:	4002      	ands	r2, r0
10042f24:	00d2      	lsls	r2, r2, #3
10042f26:	4091      	lsls	r1, r2
10042f28:	019b      	lsls	r3, r3, #6
10042f2a:	4023      	ands	r3, r4
10042f2c:	43c9      	mvns	r1, r1
10042f2e:	4093      	lsls	r3, r2
10042f30:	2800      	cmp	r0, #0
10042f32:	db0a      	blt.n	10042f4a <HAL_NVIC_SetPriority+0x32>
10042f34:	24c0      	movs	r4, #192	@ 0xc0
10042f36:	4a0b      	ldr	r2, [pc, #44]	@ (10042f64 <HAL_NVIC_SetPriority+0x4c>)
10042f38:	0880      	lsrs	r0, r0, #2
10042f3a:	0080      	lsls	r0, r0, #2
10042f3c:	1880      	adds	r0, r0, r2
10042f3e:	00a4      	lsls	r4, r4, #2
10042f40:	5902      	ldr	r2, [r0, r4]
10042f42:	400a      	ands	r2, r1
10042f44:	4313      	orrs	r3, r2
10042f46:	5103      	str	r3, [r0, r4]
10042f48:	bd10      	pop	{r4, pc}
10042f4a:	220f      	movs	r2, #15
10042f4c:	4010      	ands	r0, r2
10042f4e:	3808      	subs	r0, #8
10042f50:	4a05      	ldr	r2, [pc, #20]	@ (10042f68 <HAL_NVIC_SetPriority+0x50>)
10042f52:	0880      	lsrs	r0, r0, #2
10042f54:	0080      	lsls	r0, r0, #2
10042f56:	1880      	adds	r0, r0, r2
10042f58:	69c2      	ldr	r2, [r0, #28]
10042f5a:	4011      	ands	r1, r2
10042f5c:	4319      	orrs	r1, r3
10042f5e:	61c1      	str	r1, [r0, #28]
10042f60:	e7f2      	b.n	10042f48 <HAL_NVIC_SetPriority+0x30>
10042f62:	46c0      	nop			@ (mov r8, r8)
10042f64:	e000e100 	.word	0xe000e100
10042f68:	e000ed00 	.word	0xe000ed00

10042f6c <HAL_NVIC_EnableIRQ>:
10042f6c:	2800      	cmp	r0, #0
10042f6e:	db05      	blt.n	10042f7c <HAL_NVIC_EnableIRQ+0x10>
10042f70:	231f      	movs	r3, #31
10042f72:	4018      	ands	r0, r3
10042f74:	3b1e      	subs	r3, #30
10042f76:	4083      	lsls	r3, r0
10042f78:	4a01      	ldr	r2, [pc, #4]	@ (10042f80 <HAL_NVIC_EnableIRQ+0x14>)
10042f7a:	6013      	str	r3, [r2, #0]
10042f7c:	4770      	bx	lr
10042f7e:	46c0      	nop			@ (mov r8, r8)
10042f80:	e000e100 	.word	0xe000e100

10042f84 <HAL_SYSTICK_Config>:
10042f84:	2280      	movs	r2, #128	@ 0x80
10042f86:	1e43      	subs	r3, r0, #1
10042f88:	0452      	lsls	r2, r2, #17
10042f8a:	2001      	movs	r0, #1
10042f8c:	4293      	cmp	r3, r2
10042f8e:	d20d      	bcs.n	10042fac <HAL_SYSTICK_Config+0x28>
10042f90:	21c0      	movs	r1, #192	@ 0xc0
10042f92:	4a07      	ldr	r2, [pc, #28]	@ (10042fb0 <HAL_SYSTICK_Config+0x2c>)
10042f94:	4807      	ldr	r0, [pc, #28]	@ (10042fb4 <HAL_SYSTICK_Config+0x30>)
10042f96:	6053      	str	r3, [r2, #4]
10042f98:	6a03      	ldr	r3, [r0, #32]
10042f9a:	0609      	lsls	r1, r1, #24
10042f9c:	021b      	lsls	r3, r3, #8
10042f9e:	0a1b      	lsrs	r3, r3, #8
10042fa0:	430b      	orrs	r3, r1
10042fa2:	6203      	str	r3, [r0, #32]
10042fa4:	2000      	movs	r0, #0
10042fa6:	2307      	movs	r3, #7
10042fa8:	6090      	str	r0, [r2, #8]
10042faa:	6013      	str	r3, [r2, #0]
10042fac:	4770      	bx	lr
10042fae:	46c0      	nop			@ (mov r8, r8)
10042fb0:	e000e010 	.word	0xe000e010
10042fb4:	e000ed00 	.word	0xe000ed00

10042fb8 <HAL_GPIO_Init>:
10042fb8:	2300      	movs	r3, #0
10042fba:	b5f7      	push	{r0, r1, r2, r4, r5, r6, r7, lr}
10042fbc:	680a      	ldr	r2, [r1, #0]
10042fbe:	0014      	movs	r4, r2
10042fc0:	40dc      	lsrs	r4, r3
10042fc2:	d100      	bne.n	10042fc6 <HAL_GPIO_Init+0xe>
10042fc4:	bdf7      	pop	{r0, r1, r2, r4, r5, r6, r7, pc}
10042fc6:	2601      	movs	r6, #1
10042fc8:	409e      	lsls	r6, r3
10042fca:	4232      	tst	r2, r6
10042fcc:	d100      	bne.n	10042fd0 <HAL_GPIO_Init+0x18>
10042fce:	e084      	b.n	100430da <HAL_GPIO_Init+0x122>
10042fd0:	2403      	movs	r4, #3
10042fd2:	005d      	lsls	r5, r3, #1
10042fd4:	40ac      	lsls	r4, r5
10042fd6:	2203      	movs	r2, #3
10042fd8:	43e4      	mvns	r4, r4
10042fda:	684f      	ldr	r7, [r1, #4]
10042fdc:	9400      	str	r4, [sp, #0]
10042fde:	403a      	ands	r2, r7
10042fe0:	1e54      	subs	r4, r2, #1
10042fe2:	2c01      	cmp	r4, #1
10042fe4:	d831      	bhi.n	1004304a <HAL_GPIO_Init+0x92>
10042fe6:	6885      	ldr	r5, [r0, #8]
10042fe8:	9c00      	ldr	r4, [sp, #0]
10042fea:	4025      	ands	r5, r4
10042fec:	46ac      	mov	ip, r5
10042fee:	68cc      	ldr	r4, [r1, #12]
10042ff0:	005d      	lsls	r5, r3, #1
10042ff2:	40ac      	lsls	r4, r5
10042ff4:	4665      	mov	r5, ip
10042ff6:	432c      	orrs	r4, r5
10042ff8:	6084      	str	r4, [r0, #8]
10042ffa:	6845      	ldr	r5, [r0, #4]
10042ffc:	093c      	lsrs	r4, r7, #4
10042ffe:	43b5      	bics	r5, r6
10043000:	2601      	movs	r6, #1
10043002:	4034      	ands	r4, r6
10043004:	409c      	lsls	r4, r3
10043006:	432c      	orrs	r4, r5
10043008:	6044      	str	r4, [r0, #4]
1004300a:	68c5      	ldr	r5, [r0, #12]
1004300c:	9c00      	ldr	r4, [sp, #0]
1004300e:	005e      	lsls	r6, r3, #1
10043010:	4025      	ands	r5, r4
10043012:	688c      	ldr	r4, [r1, #8]
10043014:	40b4      	lsls	r4, r6
10043016:	432c      	orrs	r4, r5
10043018:	60c4      	str	r4, [r0, #12]
1004301a:	2a02      	cmp	r2, #2
1004301c:	d117      	bne.n	1004304e <HAL_GPIO_Init+0x96>
1004301e:	2507      	movs	r5, #7
10043020:	260f      	movs	r6, #15
10043022:	401d      	ands	r5, r3
10043024:	00ad      	lsls	r5, r5, #2
10043026:	40ae      	lsls	r6, r5
10043028:	46b4      	mov	ip, r6
1004302a:	08dc      	lsrs	r4, r3, #3
1004302c:	00a4      	lsls	r4, r4, #2
1004302e:	1904      	adds	r4, r0, r4
10043030:	9401      	str	r4, [sp, #4]
10043032:	6a24      	ldr	r4, [r4, #32]
10043034:	0026      	movs	r6, r4
10043036:	4664      	mov	r4, ip
10043038:	43a6      	bics	r6, r4
1004303a:	46b4      	mov	ip, r6
1004303c:	690e      	ldr	r6, [r1, #16]
1004303e:	4664      	mov	r4, ip
10043040:	40ae      	lsls	r6, r5
10043042:	4326      	orrs	r6, r4
10043044:	9c01      	ldr	r4, [sp, #4]
10043046:	6226      	str	r6, [r4, #32]
10043048:	e001      	b.n	1004304e <HAL_GPIO_Init+0x96>
1004304a:	2a03      	cmp	r2, #3
1004304c:	d1dd      	bne.n	1004300a <HAL_GPIO_Init+0x52>
1004304e:	6804      	ldr	r4, [r0, #0]
10043050:	9d00      	ldr	r5, [sp, #0]
10043052:	4025      	ands	r5, r4
10043054:	002c      	movs	r4, r5
10043056:	005d      	lsls	r5, r3, #1
10043058:	40aa      	lsls	r2, r5
1004305a:	4322      	orrs	r2, r4
1004305c:	6002      	str	r2, [r0, #0]
1004305e:	22c0      	movs	r2, #192	@ 0xc0
10043060:	0292      	lsls	r2, r2, #10
10043062:	4217      	tst	r7, r2
10043064:	d039      	beq.n	100430da <HAL_GPIO_Init+0x122>
10043066:	2280      	movs	r2, #128	@ 0x80
10043068:	02d2      	lsls	r2, r2, #11
1004306a:	4217      	tst	r7, r2
1004306c:	d00b      	beq.n	10043086 <HAL_GPIO_Init+0xce>
1004306e:	2580      	movs	r5, #128	@ 0x80
10043070:	2201      	movs	r2, #1
10043072:	2690      	movs	r6, #144	@ 0x90
10043074:	05ed      	lsls	r5, r5, #23
10043076:	409a      	lsls	r2, r3
10043078:	68ec      	ldr	r4, [r5, #12]
1004307a:	05f6      	lsls	r6, r6, #23
1004307c:	42b0      	cmp	r0, r6
1004307e:	d12e      	bne.n	100430de <HAL_GPIO_Init+0x126>
10043080:	4394      	bics	r4, r2
10043082:	4322      	orrs	r2, r4
10043084:	60ea      	str	r2, [r5, #12]
10043086:	02fa      	lsls	r2, r7, #11
10043088:	d50b      	bpl.n	100430a2 <HAL_GPIO_Init+0xea>
1004308a:	2580      	movs	r5, #128	@ 0x80
1004308c:	2201      	movs	r2, #1
1004308e:	2690      	movs	r6, #144	@ 0x90
10043090:	05ed      	lsls	r5, r5, #23
10043092:	409a      	lsls	r2, r3
10043094:	692c      	ldr	r4, [r5, #16]
10043096:	05f6      	lsls	r6, r6, #23
10043098:	42b0      	cmp	r0, r6
1004309a:	d122      	bne.n	100430e2 <HAL_GPIO_Init+0x12a>
1004309c:	4394      	bics	r4, r2
1004309e:	4322      	orrs	r2, r4
100430a0:	612a      	str	r2, [r5, #16]
100430a2:	027a      	lsls	r2, r7, #9
100430a4:	d50b      	bpl.n	100430be <HAL_GPIO_Init+0x106>
100430a6:	2580      	movs	r5, #128	@ 0x80
100430a8:	2201      	movs	r2, #1
100430aa:	2690      	movs	r6, #144	@ 0x90
100430ac:	05ed      	lsls	r5, r5, #23
100430ae:	409a      	lsls	r2, r3
100430b0:	696c      	ldr	r4, [r5, #20]
100430b2:	05f6      	lsls	r6, r6, #23
100430b4:	42b0      	cmp	r0, r6
100430b6:	d116      	bne.n	100430e6 <HAL_GPIO_Init+0x12e>
100430b8:	4394      	bics	r4, r2
100430ba:	4322      	orrs	r2, r4
100430bc:	616a      	str	r2, [r5, #20]
100430be:	03ff      	lsls	r7, r7, #15
100430c0:	d50b      	bpl.n	100430da <HAL_GPIO_Init+0x122>
100430c2:	2580      	movs	r5, #128	@ 0x80
100430c4:	2201      	movs	r2, #1
100430c6:	2690      	movs	r6, #144	@ 0x90
100430c8:	05ed      	lsls	r5, r5, #23
100430ca:	409a      	lsls	r2, r3
100430cc:	69ac      	ldr	r4, [r5, #24]
100430ce:	05f6      	lsls	r6, r6, #23
100430d0:	42b0      	cmp	r0, r6
100430d2:	d10a      	bne.n	100430ea <HAL_GPIO_Init+0x132>
100430d4:	4394      	bics	r4, r2
100430d6:	4322      	orrs	r2, r4
100430d8:	61aa      	str	r2, [r5, #24]
100430da:	3301      	adds	r3, #1
100430dc:	e76e      	b.n	10042fbc <HAL_GPIO_Init+0x4>
100430de:	0412      	lsls	r2, r2, #16
100430e0:	e7ce      	b.n	10043080 <HAL_GPIO_Init+0xc8>
100430e2:	0412      	lsls	r2, r2, #16
100430e4:	e7da      	b.n	1004309c <HAL_GPIO_Init+0xe4>
100430e6:	0412      	lsls	r2, r2, #16
100430e8:	e7e6      	b.n	100430b8 <HAL_GPIO_Init+0x100>
100430ea:	0412      	lsls	r2, r2, #16
100430ec:	e7f2      	b.n	100430d4 <HAL_GPIO_Init+0x11c>

100430ee <HAL_GPIO_WritePin>:
100430ee:	2a00      	cmp	r2, #0
100430f0:	d001      	beq.n	100430f6 <HAL_GPIO_WritePin+0x8>
100430f2:	6181      	str	r1, [r0, #24]
100430f4:	4770      	bx	lr
100430f6:	6281      	str	r1, [r0, #40]	@ 0x28
100430f8:	e7fc      	b.n	100430f4 <HAL_GPIO_WritePin+0x6>

100430fa <HAL_GPIO_EXTI_IRQHandler>:
100430fa:	2290      	movs	r2, #144	@ 0x90
100430fc:	2380      	movs	r3, #128	@ 0x80
100430fe:	b510      	push	{r4, lr}
10043100:	05d2      	lsls	r2, r2, #23
10043102:	05db      	lsls	r3, r3, #23
10043104:	4290      	cmp	r0, r2
10043106:	d103      	bne.n	10043110 <HAL_GPIO_EXTI_IRQHandler+0x16>
10043108:	69da      	ldr	r2, [r3, #28]
1004310a:	4211      	tst	r1, r2
1004310c:	d106      	bne.n	1004311c <HAL_GPIO_EXTI_IRQHandler+0x22>
1004310e:	bd10      	pop	{r4, pc}
10043110:	69dc      	ldr	r4, [r3, #28]
10043112:	040a      	lsls	r2, r1, #16
10043114:	4222      	tst	r2, r4
10043116:	d0fa      	beq.n	1004310e <HAL_GPIO_EXTI_IRQHandler+0x14>
10043118:	61da      	str	r2, [r3, #28]
1004311a:	e000      	b.n	1004311e <HAL_GPIO_EXTI_IRQHandler+0x24>
1004311c:	61d9      	str	r1, [r3, #28]
1004311e:	f7ff fcc3 	bl	10042aa8 <HAL_GPIO_EXTI_Callback>
10043122:	e7f4      	b.n	1004310e <HAL_GPIO_EXTI_IRQHandler+0x14>

10043124 <CondRoutineTrue>:
10043124:	2001      	movs	r0, #1
10043126:	4770      	bx	lr

10043128 <DataRoutineNull>:
10043128:	2001      	movs	r0, #1
1004312a:	4770      	bx	lr

1004312c <HAL_RADIO_ReadRSSI>:
1004312c:	23a9      	movs	r3, #169	@ 0xa9
1004312e:	4a11      	ldr	r2, [pc, #68]	@ (10043174 <HAL_RADIO_ReadRSSI+0x48>)
10043130:	009b      	lsls	r3, r3, #2
10043132:	58d1      	ldr	r1, [r2, r3]
10043134:	3304      	adds	r3, #4
10043136:	58d3      	ldr	r3, [r2, r3]
10043138:	b2c9      	uxtb	r1, r1
1004313a:	061b      	lsls	r3, r3, #24
1004313c:	0c1b      	lsrs	r3, r3, #16
1004313e:	430b      	orrs	r3, r1
10043140:	21ab      	movs	r1, #171	@ 0xab
10043142:	0089      	lsls	r1, r1, #2
10043144:	207f      	movs	r0, #127	@ 0x7f
10043146:	5851      	ldr	r1, [r2, r1]
10043148:	2b00      	cmp	r3, #0
1004314a:	d00d      	beq.n	10043168 <HAL_RADIO_ReadRSSI+0x3c>
1004314c:	290b      	cmp	r1, #11
1004314e:	d80b      	bhi.n	10043168 <HAL_RADIO_ReadRSSI+0x3c>
10043150:	2206      	movs	r2, #6
10043152:	434a      	muls	r2, r1
10043154:	3a77      	subs	r2, #119	@ 0x77
10043156:	2b1e      	cmp	r3, #30
10043158:	d808      	bhi.n	1004316c <HAL_RADIO_ReadRSSI+0x40>
1004315a:	20a2      	movs	r0, #162	@ 0xa2
1004315c:	30ff      	adds	r0, #255	@ 0xff
1004315e:	4358      	muls	r0, r3
10043160:	4b05      	ldr	r3, [pc, #20]	@ (10043178 <HAL_RADIO_ReadRSSI+0x4c>)
10043162:	18c0      	adds	r0, r0, r3
10043164:	0a80      	lsrs	r0, r0, #10
10043166:	1880      	adds	r0, r0, r2
10043168:	b240      	sxtb	r0, r0
1004316a:	4770      	bx	lr
1004316c:	3206      	adds	r2, #6
1004316e:	085b      	lsrs	r3, r3, #1
10043170:	e7f1      	b.n	10043156 <HAL_RADIO_ReadRSSI+0x2a>
10043172:	46c0      	nop			@ (mov r8, r8)
10043174:	60001400 	.word	0x60001400
10043178:	000046a0 	.word	0x000046a0

1004317c <HAL_RADIO_CallbackRcvError>:
1004317c:	4770      	bx	lr

1004317e <HAL_RADIO_CallbackRcvTimeout>:
1004317e:	4770      	bx	lr

10043180 <HAL_RADIO_CallbackRcvEncryptErr>:
10043180:	4770      	bx	lr

10043182 <HAL_RADIO_CallbackTxDone>:
10043182:	4770      	bx	lr

10043184 <HAL_RADIO_Callback>:
10043184:	b537      	push	{r0, r1, r2, r4, r5, lr}
10043186:	68c4      	ldr	r4, [r0, #12]
10043188:	2340      	movs	r3, #64	@ 0x40
1004318a:	0021      	movs	r1, r4
1004318c:	0005      	movs	r5, r0
1004318e:	4019      	ands	r1, r3
10043190:	421c      	tst	r4, r3
10043192:	d125      	bne.n	100431e0 <HAL_RADIO_Callback+0x5c>
10043194:	2208      	movs	r2, #8
10043196:	4668      	mov	r0, sp
10043198:	f001 fd62 	bl	10044c60 <memset>
1004319c:	2c00      	cmp	r4, #0
1004319e:	da0d      	bge.n	100431bc <HAL_RADIO_Callback+0x38>
100431a0:	696a      	ldr	r2, [r5, #20]
100431a2:	692b      	ldr	r3, [r5, #16]
100431a4:	4668      	mov	r0, sp
100431a6:	9200      	str	r2, [sp, #0]
100431a8:	9301      	str	r3, [sp, #4]
100431aa:	04a4      	lsls	r4, r4, #18
100431ac:	d503      	bpl.n	100431b6 <HAL_RADIO_Callback+0x32>
100431ae:	f7ff ffe7 	bl	10043180 <HAL_RADIO_CallbackRcvEncryptErr>
100431b2:	2001      	movs	r0, #1
100431b4:	bd3e      	pop	{r1, r2, r3, r4, r5, pc}
100431b6:	f7ff fbef 	bl	10042998 <HAL_RADIO_CallbackRcvOk>
100431ba:	e7fa      	b.n	100431b2 <HAL_RADIO_Callback+0x2e>
100431bc:	0163      	lsls	r3, r4, #5
100431be:	d505      	bpl.n	100431cc <HAL_RADIO_Callback+0x48>
100431c0:	696b      	ldr	r3, [r5, #20]
100431c2:	4668      	mov	r0, sp
100431c4:	9300      	str	r3, [sp, #0]
100431c6:	f7ff ffda 	bl	1004317e <HAL_RADIO_CallbackRcvTimeout>
100431ca:	e7f2      	b.n	100431b2 <HAL_RADIO_Callback+0x2e>
100431cc:	0064      	lsls	r4, r4, #1
100431ce:	d5f0      	bpl.n	100431b2 <HAL_RADIO_Callback+0x2e>
100431d0:	696b      	ldr	r3, [r5, #20]
100431d2:	4668      	mov	r0, sp
100431d4:	9300      	str	r3, [sp, #0]
100431d6:	692b      	ldr	r3, [r5, #16]
100431d8:	9301      	str	r3, [sp, #4]
100431da:	f7ff ffcf 	bl	1004317c <HAL_RADIO_CallbackRcvError>
100431de:	e7e8      	b.n	100431b2 <HAL_RADIO_Callback+0x2e>
100431e0:	01a4      	lsls	r4, r4, #6
100431e2:	d5e6      	bpl.n	100431b2 <HAL_RADIO_Callback+0x2e>
100431e4:	f7ff ffcd 	bl	10043182 <HAL_RADIO_CallbackTxDone>
100431e8:	e7e3      	b.n	100431b2 <HAL_RADIO_Callback+0x2e>
	...

100431ec <HAL_RADIO_Init>:
100431ec:	b5f0      	push	{r4, r5, r6, r7, lr}
100431ee:	4ba9      	ldr	r3, [pc, #676]	@ (10043494 <HAL_RADIO_Init+0x2a8>)
100431f0:	b085      	sub	sp, #20
100431f2:	681a      	ldr	r2, [r3, #0]
100431f4:	4ba8      	ldr	r3, [pc, #672]	@ (10043498 <HAL_RADIO_Init+0x2ac>)
100431f6:	429a      	cmp	r2, r3
100431f8:	d000      	beq.n	100431fc <HAL_RADIO_Init+0x10>
100431fa:	e145      	b.n	10043488 <HAL_RADIO_Init+0x29c>
100431fc:	220f      	movs	r2, #15
100431fe:	4ba7      	ldr	r3, [pc, #668]	@ (1004349c <HAL_RADIO_Init+0x2b0>)
10043200:	681f      	ldr	r7, [r3, #0]
10043202:	681d      	ldr	r5, [r3, #0]
10043204:	681e      	ldr	r6, [r3, #0]
10043206:	6819      	ldr	r1, [r3, #0]
10043208:	681b      	ldr	r3, [r3, #0]
1004320a:	0a3f      	lsrs	r7, r7, #8
1004320c:	0b2d      	lsrs	r5, r5, #12
1004320e:	0c36      	lsrs	r6, r6, #16
10043210:	4017      	ands	r7, r2
10043212:	4015      	ands	r5, r2
10043214:	4016      	ands	r6, r2
10043216:	0e1b      	lsrs	r3, r3, #24
10043218:	3a08      	subs	r2, #8
1004321a:	4013      	ands	r3, r2
1004321c:	9303      	str	r3, [sp, #12]
1004321e:	2301      	movs	r3, #1
10043220:	0d09      	lsrs	r1, r1, #20
10043222:	4011      	ands	r1, r2
10043224:	9102      	str	r1, [sp, #8]
10043226:	9301      	str	r3, [sp, #4]
10043228:	2300      	movs	r3, #0
1004322a:	4c9d      	ldr	r4, [pc, #628]	@ (100434a0 <HAL_RADIO_Init+0x2b4>)
1004322c:	7123      	strb	r3, [r4, #4]
1004322e:	4298      	cmp	r0, r3
10043230:	d001      	beq.n	10043236 <HAL_RADIO_Init+0x4a>
10043232:	f7ff fc51 	bl	10042ad8 <HAL_RADIO_MspInit>
10043236:	23c0      	movs	r3, #192	@ 0xc0
10043238:	2103      	movs	r1, #3
1004323a:	05db      	lsls	r3, r3, #23
1004323c:	68da      	ldr	r2, [r3, #12]
1004323e:	200f      	movs	r0, #15
10043240:	438a      	bics	r2, r1
10043242:	60da      	str	r2, [r3, #12]
10043244:	68da      	ldr	r2, [r3, #12]
10043246:	012d      	lsls	r5, r5, #4
10043248:	438a      	bics	r2, r1
1004324a:	60da      	str	r2, [r3, #12]
1004324c:	4b95      	ldr	r3, [pc, #596]	@ (100434a4 <HAL_RADIO_Init+0x2b8>)
1004324e:	4a96      	ldr	r2, [pc, #600]	@ (100434a8 <HAL_RADIO_Init+0x2bc>)
10043250:	469c      	mov	ip, r3
10043252:	6a9b      	ldr	r3, [r3, #40]	@ 0x28
10043254:	219e      	movs	r1, #158	@ 0x9e
10043256:	4013      	ands	r3, r2
10043258:	4662      	mov	r2, ip
1004325a:	6293      	str	r3, [r2, #40]	@ 0x28
1004325c:	4b93      	ldr	r3, [pc, #588]	@ (100434ac <HAL_RADIO_Init+0x2c0>)
1004325e:	0089      	lsls	r1, r1, #2
10043260:	585a      	ldr	r2, [r3, r1]
10043262:	4382      	bics	r2, r0
10043264:	4332      	orrs	r2, r6
10043266:	26f0      	movs	r6, #240	@ 0xf0
10043268:	505a      	str	r2, [r3, r1]
1004326a:	3904      	subs	r1, #4
1004326c:	585a      	ldr	r2, [r3, r1]
1004326e:	43b2      	bics	r2, r6
10043270:	432a      	orrs	r2, r5
10043272:	505a      	str	r2, [r3, r1]
10043274:	585a      	ldr	r2, [r3, r1]
10043276:	4382      	bics	r2, r0
10043278:	433a      	orrs	r2, r7
1004327a:	505a      	str	r2, [r3, r1]
1004327c:	9a01      	ldr	r2, [sp, #4]
1004327e:	2a00      	cmp	r2, #0
10043280:	d00d      	beq.n	1004329e <HAL_RADIO_Init+0xb2>
10043282:	392c      	subs	r1, #44	@ 0x2c
10043284:	585a      	ldr	r2, [r3, r1]
10043286:	3808      	subs	r0, #8
10043288:	4382      	bics	r2, r0
1004328a:	9802      	ldr	r0, [sp, #8]
1004328c:	4302      	orrs	r2, r0
1004328e:	2038      	movs	r0, #56	@ 0x38
10043290:	505a      	str	r2, [r3, r1]
10043292:	585a      	ldr	r2, [r3, r1]
10043294:	4382      	bics	r2, r0
10043296:	9803      	ldr	r0, [sp, #12]
10043298:	00c0      	lsls	r0, r0, #3
1004329a:	4302      	orrs	r2, r0
1004329c:	505a      	str	r2, [r3, r1]
1004329e:	20ff      	movs	r0, #255	@ 0xff
100432a0:	2555      	movs	r5, #85	@ 0x55
100432a2:	4a83      	ldr	r2, [pc, #524]	@ (100434b0 <HAL_RADIO_Init+0x2c4>)
100432a4:	27c2      	movs	r7, #194	@ 0xc2
100432a6:	6cd1      	ldr	r1, [r2, #76]	@ 0x4c
100432a8:	007f      	lsls	r7, r7, #1
100432aa:	4381      	bics	r1, r0
100432ac:	4329      	orrs	r1, r5
100432ae:	64d1      	str	r1, [r2, #76]	@ 0x4c
100432b0:	2166      	movs	r1, #102	@ 0x66
100432b2:	6d96      	ldr	r6, [r2, #88]	@ 0x58
100432b4:	4386      	bics	r6, r0
100432b6:	4331      	orrs	r1, r6
100432b8:	6591      	str	r1, [r2, #88]	@ 0x58
100432ba:	26c4      	movs	r6, #196	@ 0xc4
100432bc:	6ed1      	ldr	r1, [r2, #108]	@ 0x6c
100432be:	0076      	lsls	r6, r6, #1
100432c0:	4381      	bics	r1, r0
100432c2:	430d      	orrs	r5, r1
100432c4:	211d      	movs	r1, #29
100432c6:	66d5      	str	r5, [r2, #108]	@ 0x6c
100432c8:	599d      	ldr	r5, [r3, r6]
100432ca:	4385      	bics	r5, r0
100432cc:	4329      	orrs	r1, r5
100432ce:	5199      	str	r1, [r3, r6]
100432d0:	2159      	movs	r1, #89	@ 0x59
100432d2:	59dd      	ldr	r5, [r3, r7]
100432d4:	4385      	bics	r5, r0
100432d6:	4329      	orrs	r1, r5
100432d8:	51d9      	str	r1, [r3, r7]
100432da:	21c6      	movs	r1, #198	@ 0xc6
100432dc:	0049      	lsls	r1, r1, #1
100432de:	000e      	movs	r6, r1
100432e0:	585d      	ldr	r5, [r3, r1]
100432e2:	395b      	subs	r1, #91	@ 0x5b
100432e4:	4385      	bics	r5, r0
100432e6:	39ff      	subs	r1, #255	@ 0xff
100432e8:	4329      	orrs	r1, r5
100432ea:	5199      	str	r1, [r3, r6]
100432ec:	2101      	movs	r1, #1
100432ee:	6f15      	ldr	r5, [r2, #112]	@ 0x70
100432f0:	430d      	orrs	r5, r1
100432f2:	6715      	str	r5, [r2, #112]	@ 0x70
100432f4:	6866      	ldr	r6, [r4, #4]
100432f6:	4d6f      	ldr	r5, [pc, #444]	@ (100434b4 <HAL_RADIO_Init+0x2c8>)
100432f8:	402e      	ands	r6, r5
100432fa:	2580      	movs	r5, #128	@ 0x80
100432fc:	01ed      	lsls	r5, r5, #7
100432fe:	4335      	orrs	r5, r6
10043300:	6065      	str	r5, [r4, #4]
10043302:	25fc      	movs	r5, #252	@ 0xfc
10043304:	6867      	ldr	r7, [r4, #4]
10043306:	4e6c      	ldr	r6, [pc, #432]	@ (100434b8 <HAL_RADIO_Init+0x2cc>)
10043308:	03ad      	lsls	r5, r5, #14
1004330a:	4037      	ands	r7, r6
1004330c:	433d      	orrs	r5, r7
1004330e:	2790      	movs	r7, #144	@ 0x90
10043310:	6065      	str	r5, [r4, #4]
10043312:	6865      	ldr	r5, [r4, #4]
10043314:	053f      	lsls	r7, r7, #20
10043316:	022d      	lsls	r5, r5, #8
10043318:	0a2d      	lsrs	r5, r5, #8
1004331a:	432f      	orrs	r7, r5
1004331c:	25e8      	movs	r5, #232	@ 0xe8
1004331e:	6067      	str	r7, [r4, #4]
10043320:	68a7      	ldr	r7, [r4, #8]
10043322:	03ed      	lsls	r5, r5, #15
10043324:	4037      	ands	r7, r6
10043326:	433d      	orrs	r5, r7
10043328:	27e0      	movs	r7, #224	@ 0xe0
1004332a:	60a5      	str	r5, [r4, #8]
1004332c:	68a5      	ldr	r5, [r4, #8]
1004332e:	05bf      	lsls	r7, r7, #22
10043330:	022d      	lsls	r5, r5, #8
10043332:	0a2d      	lsrs	r5, r5, #8
10043334:	432f      	orrs	r7, r5
10043336:	2576      	movs	r5, #118	@ 0x76
10043338:	60a7      	str	r7, [r4, #8]
1004333a:	68a7      	ldr	r7, [r4, #8]
1004333c:	4387      	bics	r7, r0
1004333e:	433d      	orrs	r5, r7
10043340:	60a5      	str	r5, [r4, #8]
10043342:	68a7      	ldr	r7, [r4, #8]
10043344:	4d5b      	ldr	r5, [pc, #364]	@ (100434b4 <HAL_RADIO_Init+0x2c8>)
10043346:	402f      	ands	r7, r5
10043348:	25e8      	movs	r5, #232	@ 0xe8
1004334a:	01ad      	lsls	r5, r5, #6
1004334c:	433d      	orrs	r5, r7
1004334e:	60a5      	str	r5, [r4, #8]
10043350:	68e5      	ldr	r5, [r4, #12]
10043352:	27c2      	movs	r7, #194	@ 0xc2
10043354:	402e      	ands	r6, r5
10043356:	2580      	movs	r5, #128	@ 0x80
10043358:	036d      	lsls	r5, r5, #13
1004335a:	4335      	orrs	r5, r6
1004335c:	60e5      	str	r5, [r4, #12]
1004335e:	68e5      	ldr	r5, [r4, #12]
10043360:	4e56      	ldr	r6, [pc, #344]	@ (100434bc <HAL_RADIO_Init+0x2d0>)
10043362:	007f      	lsls	r7, r7, #1
10043364:	402e      	ands	r6, r5
10043366:	2580      	movs	r5, #128	@ 0x80
10043368:	056d      	lsls	r5, r5, #21
1004336a:	4335      	orrs	r5, r6
1004336c:	60e5      	str	r5, [r4, #12]
1004336e:	2505      	movs	r5, #5
10043370:	6926      	ldr	r6, [r4, #16]
10043372:	4386      	bics	r6, r0
10043374:	4335      	orrs	r5, r6
10043376:	6125      	str	r5, [r4, #16]
10043378:	68e5      	ldr	r5, [r4, #12]
1004337a:	261a      	movs	r6, #26
1004337c:	4385      	bics	r5, r0
1004337e:	38eb      	subs	r0, #235	@ 0xeb
10043380:	4328      	orrs	r0, r5
10043382:	60e0      	str	r0, [r4, #12]
10043384:	68e5      	ldr	r5, [r4, #12]
10043386:	484b      	ldr	r0, [pc, #300]	@ (100434b4 <HAL_RADIO_Init+0x2c8>)
10043388:	4005      	ands	r5, r0
1004338a:	20a0      	movs	r0, #160	@ 0xa0
1004338c:	00c0      	lsls	r0, r0, #3
1004338e:	4328      	orrs	r0, r5
10043390:	60e0      	str	r0, [r4, #12]
10043392:	2004      	movs	r0, #4
10043394:	6965      	ldr	r5, [r4, #20]
10043396:	4328      	orrs	r0, r5
10043398:	6160      	str	r0, [r4, #20]
1004339a:	2080      	movs	r0, #128	@ 0x80
1004339c:	6965      	ldr	r5, [r4, #20]
1004339e:	0400      	lsls	r0, r0, #16
100433a0:	4328      	orrs	r0, r5
100433a2:	6160      	str	r0, [r4, #20]
100433a4:	2080      	movs	r0, #128	@ 0x80
100433a6:	6965      	ldr	r5, [r4, #20]
100433a8:	0580      	lsls	r0, r0, #22
100433aa:	4328      	orrs	r0, r5
100433ac:	6160      	str	r0, [r4, #20]
100433ae:	4d44      	ldr	r5, [pc, #272]	@ (100434c0 <HAL_RADIO_Init+0x2d4>)
100433b0:	4844      	ldr	r0, [pc, #272]	@ (100434c4 <HAL_RADIO_Init+0x2d8>)
100433b2:	8205      	strh	r5, [r0, #16]
100433b4:	259e      	movs	r5, #158	@ 0x9e
100433b6:	00ad      	lsls	r5, r5, #2
100433b8:	595d      	ldr	r5, [r3, r5]
100433ba:	74c1      	strb	r1, [r0, #19]
100433bc:	7485      	strb	r5, [r0, #18]
100433be:	255d      	movs	r5, #93	@ 0x5d
100433c0:	7505      	strb	r5, [r0, #20]
100433c2:	259d      	movs	r5, #157	@ 0x9d
100433c4:	00ad      	lsls	r5, r5, #2
100433c6:	595d      	ldr	r5, [r3, r5]
100433c8:	7545      	strb	r5, [r0, #21]
100433ca:	4d3f      	ldr	r5, [pc, #252]	@ (100434c8 <HAL_RADIO_Init+0x2dc>)
100433cc:	82c5      	strh	r5, [r0, #22]
100433ce:	2592      	movs	r5, #146	@ 0x92
100433d0:	00ad      	lsls	r5, r5, #2
100433d2:	595d      	ldr	r5, [r3, r5]
100433d4:	7641      	strb	r1, [r0, #25]
100433d6:	7605      	strb	r5, [r0, #24]
100433d8:	2512      	movs	r5, #18
100433da:	7685      	strb	r5, [r0, #26]
100433dc:	6cd5      	ldr	r5, [r2, #76]	@ 0x4c
100433de:	76c5      	strb	r5, [r0, #27]
100433e0:	4d3a      	ldr	r5, [pc, #232]	@ (100434cc <HAL_RADIO_Init+0x2e0>)
100433e2:	8385      	strh	r5, [r0, #28]
100433e4:	6d95      	ldr	r5, [r2, #88]	@ 0x58
100433e6:	77c1      	strb	r1, [r0, #31]
100433e8:	7785      	strb	r5, [r0, #30]
100433ea:	1845      	adds	r5, r0, r1
100433ec:	77ee      	strb	r6, [r5, #31]
100433ee:	6ed6      	ldr	r6, [r2, #108]	@ 0x6c
100433f0:	1c85      	adds	r5, r0, #2
100433f2:	77ee      	strb	r6, [r5, #31]
100433f4:	26c4      	movs	r6, #196	@ 0xc4
100433f6:	4d36      	ldr	r5, [pc, #216]	@ (100434d0 <HAL_RADIO_Init+0x2e4>)
100433f8:	0076      	lsls	r6, r6, #1
100433fa:	8445      	strh	r5, [r0, #34]	@ 0x22
100433fc:	599e      	ldr	r6, [r3, r6]
100433fe:	1d45      	adds	r5, r0, #5
10043400:	77ee      	strb	r6, [r5, #31]
10043402:	2621      	movs	r6, #33	@ 0x21
10043404:	1d85      	adds	r5, r0, #6
10043406:	77e9      	strb	r1, [r5, #31]
10043408:	1dc5      	adds	r5, r0, #7
1004340a:	77ee      	strb	r6, [r5, #31]
1004340c:	4d31      	ldr	r5, [pc, #196]	@ (100434d4 <HAL_RADIO_Init+0x2e8>)
1004340e:	59de      	ldr	r6, [r3, r7]
10043410:	0007      	movs	r7, r0
10043412:	8505      	strh	r5, [r0, #40]	@ 0x28
10043414:	25c6      	movs	r5, #198	@ 0xc6
10043416:	3708      	adds	r7, #8
10043418:	77fe      	strb	r6, [r7, #31]
1004341a:	006d      	lsls	r5, r5, #1
1004341c:	595e      	ldr	r6, [r3, r5]
1004341e:	0005      	movs	r5, r0
10043420:	352a      	adds	r5, #42	@ 0x2a
10043422:	702e      	strb	r6, [r5, #0]
10043424:	0005      	movs	r5, r0
10043426:	352b      	adds	r5, #43	@ 0x2b
10043428:	7029      	strb	r1, [r5, #0]
1004342a:	0005      	movs	r5, r0
1004342c:	271b      	movs	r7, #27
1004342e:	352c      	adds	r5, #44	@ 0x2c
10043430:	702f      	strb	r7, [r5, #0]
10043432:	6f15      	ldr	r5, [r2, #112]	@ 0x70
10043434:	0002      	movs	r2, r0
10043436:	322d      	adds	r2, #45	@ 0x2d
10043438:	7015      	strb	r5, [r2, #0]
1004343a:	0005      	movs	r5, r0
1004343c:	2200      	movs	r2, #0
1004343e:	0006      	movs	r6, r0
10043440:	352e      	adds	r5, #46	@ 0x2e
10043442:	702a      	strb	r2, [r5, #0]
10043444:	4d24      	ldr	r5, [pc, #144]	@ (100434d8 <HAL_RADIO_Init+0x2ec>)
10043446:	360c      	adds	r6, #12
10043448:	6005      	str	r5, [r0, #0]
1004344a:	6045      	str	r5, [r0, #4]
1004344c:	6086      	str	r6, [r0, #8]
1004344e:	60c2      	str	r2, [r0, #12]
10043450:	6800      	ldr	r0, [r0, #0]
10043452:	6825      	ldr	r5, [r4, #0]
10043454:	6020      	str	r0, [r4, #0]
10043456:	6119      	str	r1, [r3, #16]
10043458:	2380      	movs	r3, #128	@ 0x80
1004345a:	6960      	ldr	r0, [r4, #20]
1004345c:	05db      	lsls	r3, r3, #23
1004345e:	4303      	orrs	r3, r0
10043460:	2096      	movs	r0, #150	@ 0x96
10043462:	6163      	str	r3, [r4, #20]
10043464:	4b1d      	ldr	r3, [pc, #116]	@ (100434dc <HAL_RADIO_Init+0x2f0>)
10043466:	6018      	str	r0, [r3, #0]
10043468:	711a      	strb	r2, [r3, #4]
1004346a:	23c0      	movs	r3, #192	@ 0xc0
1004346c:	05db      	lsls	r3, r3, #23
1004346e:	685a      	ldr	r2, [r3, #4]
10043470:	4660      	mov	r0, ip
10043472:	605a      	str	r2, [r3, #4]
10043474:	4662      	mov	r2, ip
10043476:	6c52      	ldr	r2, [r2, #68]	@ 0x44
10043478:	430a      	orrs	r2, r1
1004347a:	6442      	str	r2, [r0, #68]	@ 0x44
1004347c:	6c02      	ldr	r2, [r0, #64]	@ 0x40
1004347e:	4311      	orrs	r1, r2
10043480:	6401      	str	r1, [r0, #64]	@ 0x40
10043482:	685b      	ldr	r3, [r3, #4]
10043484:	b005      	add	sp, #20
10043486:	bdf0      	pop	{r4, r5, r6, r7, pc}
10043488:	2300      	movs	r3, #0
1004348a:	2608      	movs	r6, #8
1004348c:	2507      	movs	r5, #7
1004348e:	0037      	movs	r7, r6
10043490:	9301      	str	r3, [sp, #4]
10043492:	e6c9      	b.n	10043228 <HAL_RADIO_Init+0x3c>
10043494:	10001ef8 	.word	0x10001ef8
10043498:	fcbceccc 	.word	0xfcbceccc
1004349c:	10001ee8 	.word	0x10001ee8
100434a0:	200000c0 	.word	0x200000c0
100434a4:	60001800 	.word	0x60001800
100434a8:	bfffffff 	.word	0xbfffffff
100434ac:	60001400 	.word	0x60001400
100434b0:	600014fc 	.word	0x600014fc
100434b4:	ffff00ff 	.word	0xffff00ff
100434b8:	ff00ffff 	.word	0xff00ffff
100434bc:	c0ffffff 	.word	0xc0ffffff
100434c0:	00005e01 	.word	0x00005e01
100434c4:	20000814 	.word	0x20000814
100434c8:	00005201 	.word	0x00005201
100434cc:	00001501 	.word	0x00001501
100434d0:	00002201 	.word	0x00002201
100434d4:	00002301 	.word	0x00002301
100434d8:	20000824 	.word	0x20000824
100434dc:	200008c4 	.word	0x200008c4

100434e0 <HAL_RADIO_SetChannelMap>:
100434e0:	2350      	movs	r3, #80	@ 0x50
100434e2:	4358      	muls	r0, r3
100434e4:	4b08      	ldr	r3, [pc, #32]	@ (10043508 <HAL_RADIO_SetChannelMap+0x28>)
100434e6:	b510      	push	{r4, lr}
100434e8:	18c0      	adds	r0, r0, r3
100434ea:	2300      	movs	r3, #0
100434ec:	5ccc      	ldrb	r4, [r1, r3]
100434ee:	18c2      	adds	r2, r0, r3
100434f0:	322e      	adds	r2, #46	@ 0x2e
100434f2:	3301      	adds	r3, #1
100434f4:	7014      	strb	r4, [r2, #0]
100434f6:	2b05      	cmp	r3, #5
100434f8:	d1f8      	bne.n	100434ec <HAL_RADIO_SetChannelMap+0xc>
100434fa:	221f      	movs	r2, #31
100434fc:	3032      	adds	r0, #50	@ 0x32
100434fe:	7803      	ldrb	r3, [r0, #0]
10043500:	4013      	ands	r3, r2
10043502:	7003      	strb	r3, [r0, #0]
10043504:	bd10      	pop	{r4, pc}
10043506:	46c0      	nop			@ (mov r8, r8)
10043508:	200000dc 	.word	0x200000dc

1004350c <HAL_RADIO_SetChannel>:
1004350c:	2350      	movs	r3, #80	@ 0x50
1004350e:	b530      	push	{r4, r5, lr}
10043510:	253f      	movs	r5, #63	@ 0x3f
10043512:	4358      	muls	r0, r3
10043514:	4b06      	ldr	r3, [pc, #24]	@ (10043530 <HAL_RADIO_SetChannel+0x24>)
10043516:	18c4      	adds	r4, r0, r3
10043518:	7823      	ldrb	r3, [r4, #0]
1004351a:	43ab      	bics	r3, r5
1004351c:	430b      	orrs	r3, r1
1004351e:	7023      	strb	r3, [r4, #0]
10043520:	7863      	ldrb	r3, [r4, #1]
10043522:	43ab      	bics	r3, r5
10043524:	4319      	orrs	r1, r3
10043526:	4b03      	ldr	r3, [pc, #12]	@ (10043534 <HAL_RADIO_SetChannel+0x28>)
10043528:	7061      	strb	r1, [r4, #1]
1004352a:	18c0      	adds	r0, r0, r3
1004352c:	7002      	strb	r2, [r0, #0]
1004352e:	bd30      	pop	{r4, r5, pc}
10043530:	200000dc 	.word	0x200000dc
10043534:	20000109 	.word	0x20000109

10043538 <HAL_RADIO_SetGlobalReceiveTimeout>:
10043538:	2380      	movs	r3, #128	@ 0x80
1004353a:	02db      	lsls	r3, r3, #11
1004353c:	4298      	cmp	r0, r3
1004353e:	d209      	bcs.n	10043554 <HAL_RADIO_SetGlobalReceiveTimeout+0x1c>
10043540:	4b1f      	ldr	r3, [pc, #124]	@ (100435c0 <HAL_RADIO_SetGlobalReceiveTimeout+0x88>)
10043542:	b2c2      	uxtb	r2, r0
10043544:	745a      	strb	r2, [r3, #17]
10043546:	0a02      	lsrs	r2, r0, #8
10043548:	0c00      	lsrs	r0, r0, #16
1004354a:	b2d2      	uxtb	r2, r2
1004354c:	b2c0      	uxtb	r0, r0
1004354e:	749a      	strb	r2, [r3, #18]
10043550:	74d8      	strb	r0, [r3, #19]
10043552:	4770      	bx	lr
10043554:	2380      	movs	r3, #128	@ 0x80
10043556:	035b      	lsls	r3, r3, #13
10043558:	4298      	cmp	r0, r3
1004355a:	d20e      	bcs.n	1004357a <HAL_RADIO_SetGlobalReceiveTimeout+0x42>
1004355c:	4b18      	ldr	r3, [pc, #96]	@ (100435c0 <HAL_RADIO_SetGlobalReceiveTimeout+0x88>)
1004355e:	0882      	lsrs	r2, r0, #2
10043560:	b2d2      	uxtb	r2, r2
10043562:	745a      	strb	r2, [r3, #17]
10043564:	0a82      	lsrs	r2, r0, #10
10043566:	b2d2      	uxtb	r2, r2
10043568:	749a      	strb	r2, [r3, #18]
1004356a:	2204      	movs	r2, #4
1004356c:	0c80      	lsrs	r0, r0, #18
1004356e:	b2c0      	uxtb	r0, r0
10043570:	74d8      	strb	r0, [r3, #19]
10043572:	7cd9      	ldrb	r1, [r3, #19]
10043574:	430a      	orrs	r2, r1
10043576:	74da      	strb	r2, [r3, #19]
10043578:	e7eb      	b.n	10043552 <HAL_RADIO_SetGlobalReceiveTimeout+0x1a>
1004357a:	2380      	movs	r3, #128	@ 0x80
1004357c:	03db      	lsls	r3, r3, #15
1004357e:	4298      	cmp	r0, r3
10043580:	d20c      	bcs.n	1004359c <HAL_RADIO_SetGlobalReceiveTimeout+0x64>
10043582:	4b0f      	ldr	r3, [pc, #60]	@ (100435c0 <HAL_RADIO_SetGlobalReceiveTimeout+0x88>)
10043584:	0902      	lsrs	r2, r0, #4
10043586:	b2d2      	uxtb	r2, r2
10043588:	745a      	strb	r2, [r3, #17]
1004358a:	0b02      	lsrs	r2, r0, #12
1004358c:	0d00      	lsrs	r0, r0, #20
1004358e:	b2d2      	uxtb	r2, r2
10043590:	b2c0      	uxtb	r0, r0
10043592:	749a      	strb	r2, [r3, #18]
10043594:	74d8      	strb	r0, [r3, #19]
10043596:	2208      	movs	r2, #8
10043598:	7cd9      	ldrb	r1, [r3, #19]
1004359a:	e7eb      	b.n	10043574 <HAL_RADIO_SetGlobalReceiveTimeout+0x3c>
1004359c:	2380      	movs	r3, #128	@ 0x80
1004359e:	045b      	lsls	r3, r3, #17
100435a0:	4298      	cmp	r0, r3
100435a2:	d2d6      	bcs.n	10043552 <HAL_RADIO_SetGlobalReceiveTimeout+0x1a>
100435a4:	4b06      	ldr	r3, [pc, #24]	@ (100435c0 <HAL_RADIO_SetGlobalReceiveTimeout+0x88>)
100435a6:	0982      	lsrs	r2, r0, #6
100435a8:	b2d2      	uxtb	r2, r2
100435aa:	745a      	strb	r2, [r3, #17]
100435ac:	0b82      	lsrs	r2, r0, #14
100435ae:	0d80      	lsrs	r0, r0, #22
100435b0:	b2d2      	uxtb	r2, r2
100435b2:	b2c0      	uxtb	r0, r0
100435b4:	749a      	strb	r2, [r3, #18]
100435b6:	74d8      	strb	r0, [r3, #19]
100435b8:	220c      	movs	r2, #12
100435ba:	7cd9      	ldrb	r1, [r3, #19]
100435bc:	e7da      	b.n	10043574 <HAL_RADIO_SetGlobalReceiveTimeout+0x3c>
100435be:	46c0      	nop			@ (mov r8, r8)
100435c0:	200000c0 	.word	0x200000c0

100435c4 <HAL_RADIO_SetReservedArea>:
100435c4:	b570      	push	{r4, r5, r6, lr}
100435c6:	2510      	movs	r5, #16
100435c8:	0004      	movs	r4, r0
100435ca:	002a      	movs	r2, r5
100435cc:	2100      	movs	r1, #0
100435ce:	301c      	adds	r0, #28
100435d0:	f001 fb46 	bl	10044c60 <memset>
100435d4:	0023      	movs	r3, r4
100435d6:	3318      	adds	r3, #24
100435d8:	61a3      	str	r3, [r4, #24]
100435da:	68a3      	ldr	r3, [r4, #8]
100435dc:	1d62      	adds	r2, r4, #5
100435de:	6223      	str	r3, [r4, #32]
100435e0:	4b1d      	ldr	r3, [pc, #116]	@ (10043658 <HAL_RADIO_SetReservedArea+0x94>)
100435e2:	681b      	ldr	r3, [r3, #0]
100435e4:	3b46      	subs	r3, #70	@ 0x46
100435e6:	b2d9      	uxtb	r1, r3
100435e8:	77d1      	strb	r1, [r2, #31]
100435ea:	0a1a      	lsrs	r2, r3, #8
100435ec:	b2d2      	uxtb	r2, r2
100435ee:	1da1      	adds	r1, r4, #6
100435f0:	77ca      	strb	r2, [r1, #31]
100435f2:	2140      	movs	r1, #64	@ 0x40
100435f4:	031b      	lsls	r3, r3, #12
100435f6:	1de2      	adds	r2, r4, #7
100435f8:	0f1b      	lsrs	r3, r3, #28
100435fa:	77d3      	strb	r3, [r2, #31]
100435fc:	7fd3      	ldrb	r3, [r2, #31]
100435fe:	431d      	orrs	r5, r3
10043600:	77d5      	strb	r5, [r2, #31]
10043602:	7863      	ldrb	r3, [r4, #1]
10043604:	420b      	tst	r3, r1
10043606:	d124      	bne.n	10043652 <HAL_RADIO_SetReservedArea+0x8e>
10043608:	2080      	movs	r0, #128	@ 0x80
1004360a:	7fd1      	ldrb	r1, [r2, #31]
1004360c:	4301      	orrs	r1, r0
1004360e:	77d1      	strb	r1, [r2, #31]
10043610:	0018      	movs	r0, r3
10043612:	227e      	movs	r2, #126	@ 0x7e
10043614:	4390      	bics	r0, r2
10043616:	2204      	movs	r2, #4
10043618:	7f21      	ldrb	r1, [r4, #28]
1004361a:	4301      	orrs	r1, r0
1004361c:	430a      	orrs	r2, r1
1004361e:	7722      	strb	r2, [r4, #28]
10043620:	2210      	movs	r2, #16
10043622:	7f61      	ldrb	r1, [r4, #29]
10043624:	401a      	ands	r2, r3
10043626:	4311      	orrs	r1, r2
10043628:	2206      	movs	r2, #6
1004362a:	430a      	orrs	r2, r1
1004362c:	7762      	strb	r2, [r4, #29]
1004362e:	0022      	movs	r2, r4
10043630:	21ff      	movs	r1, #255	@ 0xff
10043632:	3208      	adds	r2, #8
10043634:	77d1      	strb	r1, [r2, #31]
10043636:	6ae2      	ldr	r2, [r4, #44]	@ 0x2c
10043638:	7852      	ldrb	r2, [r2, #1]
1004363a:	0792      	lsls	r2, r2, #30
1004363c:	d503      	bpl.n	10043646 <HAL_RADIO_SetReservedArea+0x82>
1004363e:	2201      	movs	r2, #1
10043640:	7f61      	ldrb	r1, [r4, #29]
10043642:	430a      	orrs	r2, r1
10043644:	7762      	strb	r2, [r4, #29]
10043646:	079b      	lsls	r3, r3, #30
10043648:	0fdb      	lsrs	r3, r3, #31
1004364a:	01db      	lsls	r3, r3, #7
1004364c:	343c      	adds	r4, #60	@ 0x3c
1004364e:	7023      	strb	r3, [r4, #0]
10043650:	bd70      	pop	{r4, r5, r6, pc}
10043652:	7fd0      	ldrb	r0, [r2, #31]
10043654:	e7da      	b.n	1004360c <HAL_RADIO_SetReservedArea+0x48>
10043656:	46c0      	nop			@ (mov r8, r8)
10043658:	200008c4 	.word	0x200008c4

1004365c <HAL_RADIO_GetStatus>:
1004365c:	b510      	push	{r4, lr}
1004365e:	4b05      	ldr	r3, [pc, #20]	@ (10043674 <HAL_RADIO_GetStatus+0x18>)
10043660:	791a      	ldrb	r2, [r3, #4]
10043662:	2300      	movs	r3, #0
10043664:	b252      	sxtb	r2, r2
10043666:	429a      	cmp	r2, r3
10043668:	da02      	bge.n	10043670 <HAL_RADIO_GetStatus+0x14>
1004366a:	f000 fa89 	bl	10043b80 <HAL_RADIO_TIMER_GetRadioTimerValue>
1004366e:	0003      	movs	r3, r0
10043670:	0018      	movs	r0, r3
10043672:	bd10      	pop	{r4, pc}
10043674:	200000c0 	.word	0x200000c0

10043678 <HAL_RADIO_MakeActionPacketPending>:
10043678:	b573      	push	{r0, r1, r4, r5, r6, lr}
1004367a:	0004      	movs	r4, r0
1004367c:	a801      	add	r0, sp, #4
1004367e:	f7ff ffed 	bl	1004365c <HAL_RADIO_GetStatus>
10043682:	0003      	movs	r3, r0
10043684:	20c4      	movs	r0, #196	@ 0xc4
10043686:	2b00      	cmp	r3, #0
10043688:	d13c      	bne.n	10043704 <HAL_RADIO_MakeActionPacketPending+0x8c>
1004368a:	23c0      	movs	r3, #192	@ 0xc0
1004368c:	2103      	movs	r1, #3
1004368e:	05db      	lsls	r3, r3, #23
10043690:	68da      	ldr	r2, [r3, #12]
10043692:	0020      	movs	r0, r4
10043694:	438a      	bics	r2, r1
10043696:	60da      	str	r2, [r3, #12]
10043698:	68da      	ldr	r2, [r3, #12]
1004369a:	0026      	movs	r6, r4
1004369c:	438a      	bics	r2, r1
1004369e:	60da      	str	r2, [r3, #12]
100436a0:	2280      	movs	r2, #128	@ 0x80
100436a2:	7823      	ldrb	r3, [r4, #0]
100436a4:	491c      	ldr	r1, [pc, #112]	@ (10043718 <HAL_RADIO_MakeActionPacketPending+0xa0>)
100436a6:	431a      	orrs	r2, r3
100436a8:	710a      	strb	r2, [r1, #4]
100436aa:	217f      	movs	r1, #127	@ 0x7f
100436ac:	400b      	ands	r3, r1
100436ae:	001a      	movs	r2, r3
100436b0:	2350      	movs	r3, #80	@ 0x50
100436b2:	4353      	muls	r3, r2
100436b4:	4a19      	ldr	r2, [pc, #100]	@ (1004371c <HAL_RADIO_MakeActionPacketPending+0xa4>)
100436b6:	3018      	adds	r0, #24
100436b8:	189a      	adds	r2, r3, r2
100436ba:	6090      	str	r0, [r2, #8]
100436bc:	4d18      	ldr	r5, [pc, #96]	@ (10043720 <HAL_RADIO_MakeActionPacketPending+0xa8>)
100436be:	6050      	str	r0, [r2, #4]
100436c0:	78a0      	ldrb	r0, [r4, #2]
100436c2:	195b      	adds	r3, r3, r5
100436c4:	7018      	strb	r0, [r3, #0]
100436c6:	4b17      	ldr	r3, [pc, #92]	@ (10043724 <HAL_RADIO_MakeActionPacketPending+0xac>)
100436c8:	363c      	adds	r6, #60	@ 0x3c
100436ca:	609c      	str	r4, [r3, #8]
100436cc:	7813      	ldrb	r3, [r2, #0]
100436ce:	400b      	ands	r3, r1
100436d0:	7831      	ldrb	r1, [r6, #0]
100436d2:	430b      	orrs	r3, r1
100436d4:	7013      	strb	r3, [r2, #0]
100436d6:	b672      	cpsid	i
100436d8:	7862      	ldrb	r2, [r4, #1]
100436da:	0693      	lsls	r3, r2, #26
100436dc:	d513      	bpl.n	10043706 <HAL_RADIO_MakeActionPacketPending+0x8e>
100436de:	f000 fa6f 	bl	10043bc0 <HAL_RADIO_TIMER_GetCurrentSysTime>
100436e2:	0005      	movs	r5, r0
100436e4:	6860      	ldr	r0, [r4, #4]
100436e6:	f000 fa55 	bl	10043b94 <HAL_RADIO_TIMER_UsToSystime>
100436ea:	2301      	movs	r3, #1
100436ec:	7831      	ldrb	r1, [r6, #0]
100436ee:	7862      	ldrb	r2, [r4, #1]
100436f0:	3980      	subs	r1, #128	@ 0x80
100436f2:	401a      	ands	r2, r3
100436f4:	424b      	negs	r3, r1
100436f6:	4159      	adcs	r1, r3
100436f8:	1940      	adds	r0, r0, r5
100436fa:	b2c9      	uxtb	r1, r1
100436fc:	f000 fb6c 	bl	10043dd8 <HAL_RADIO_TIMER_SetRadioTimerValue>
10043700:	b2c0      	uxtb	r0, r0
10043702:	b662      	cpsie	i
10043704:	bd76      	pop	{r1, r2, r4, r5, r6, pc}
10043706:	2301      	movs	r3, #1
10043708:	7831      	ldrb	r1, [r6, #0]
1004370a:	401a      	ands	r2, r3
1004370c:	3980      	subs	r1, #128	@ 0x80
1004370e:	424b      	negs	r3, r1
10043710:	4159      	adcs	r1, r3
10043712:	6860      	ldr	r0, [r4, #4]
10043714:	b2c9      	uxtb	r1, r1
10043716:	e7f1      	b.n	100436fc <HAL_RADIO_MakeActionPacketPending+0x84>
10043718:	200000c0 	.word	0x200000c0
1004371c:	200000dc 	.word	0x200000dc
10043720:	20000107 	.word	0x20000107
10043724:	200008c4 	.word	0x200008c4

10043728 <HAL_RADIO_SetTxPower>:
10043728:	4b02      	ldr	r3, [pc, #8]	@ (10043734 <HAL_RADIO_SetTxPower+0xc>)
1004372a:	7018      	strb	r0, [r3, #0]
1004372c:	4b02      	ldr	r3, [pc, #8]	@ (10043738 <HAL_RADIO_SetTxPower+0x10>)
1004372e:	7018      	strb	r0, [r3, #0]
10043730:	4770      	bx	lr
10043732:	46c0      	nop			@ (mov r8, r8)
10043734:	20000108 	.word	0x20000108
10043738:	20000158 	.word	0x20000158

1004373c <HAL_RADIO_SetNetworkID>:
1004373c:	4b01      	ldr	r3, [pc, #4]	@ (10043744 <HAL_RADIO_SetNetworkID+0x8>)
1004373e:	6018      	str	r0, [r3, #0]
10043740:	2000      	movs	r0, #0
10043742:	4770      	bx	lr
10043744:	200009d4 	.word	0x200009d4

10043748 <HAL_RADIO_SendPacketWithAck>:
10043748:	b5f0      	push	{r4, r5, r6, r7, lr}
1004374a:	b089      	sub	sp, #36	@ 0x24
1004374c:	001f      	movs	r7, r3
1004374e:	ab0e      	add	r3, sp, #56	@ 0x38
10043750:	0016      	movs	r6, r2
10043752:	cb04      	ldmia	r3!, {r2}
10043754:	0004      	movs	r4, r0
10043756:	781b      	ldrb	r3, [r3, #0]
10043758:	9202      	str	r2, [sp, #8]
1004375a:	9303      	str	r3, [sp, #12]
1004375c:	9101      	str	r1, [sp, #4]
1004375e:	f000 fa2f 	bl	10043bc0 <HAL_RADIO_TIMER_GetCurrentSysTime>
10043762:	0005      	movs	r5, r0
10043764:	9801      	ldr	r0, [sp, #4]
10043766:	f000 fa15 	bl	10043b94 <HAL_RADIO_TIMER_UsToSystime>
1004376a:	1945      	adds	r5, r0, r5
1004376c:	a805      	add	r0, sp, #20
1004376e:	f7ff ff75 	bl	1004365c <HAL_RADIO_GetStatus>
10043772:	2205      	movs	r2, #5
10043774:	4920      	ldr	r1, [pc, #128]	@ (100437f8 <HAL_RADIO_SendPacketWithAck+0xb0>)
10043776:	a806      	add	r0, sp, #24
10043778:	f001 fa7a 	bl	10044c70 <memcpy>
1004377c:	a906      	add	r1, sp, #24
1004377e:	2000      	movs	r0, #0
10043780:	f7ff feae 	bl	100434e0 <HAL_RADIO_SetChannelMap>
10043784:	2200      	movs	r2, #0
10043786:	0021      	movs	r1, r4
10043788:	0010      	movs	r0, r2
1004378a:	f7ff febf 	bl	1004350c <HAL_RADIO_SetChannel>
1004378e:	4b1b      	ldr	r3, [pc, #108]	@ (100437fc <HAL_RADIO_SendPacketWithAck+0xb4>)
10043790:	681a      	ldr	r2, [r3, #0]
10043792:	4b1b      	ldr	r3, [pc, #108]	@ (10043800 <HAL_RADIO_SendPacketWithAck+0xb8>)
10043794:	0019      	movs	r1, r3
10043796:	625a      	str	r2, [r3, #36]	@ 0x24
10043798:	2255      	movs	r2, #85	@ 0x55
1004379a:	3128      	adds	r1, #40	@ 0x28
1004379c:	332a      	adds	r3, #42	@ 0x2a
1004379e:	700a      	strb	r2, [r1, #0]
100437a0:	704a      	strb	r2, [r1, #1]
100437a2:	701a      	strb	r2, [r3, #0]
100437a4:	9802      	ldr	r0, [sp, #8]
100437a6:	f7ff fec7 	bl	10043538 <HAL_RADIO_SetGlobalReceiveTimeout>
100437aa:	23c0      	movs	r3, #192	@ 0xc0
100437ac:	4c15      	ldr	r4, [pc, #84]	@ (10043804 <HAL_RADIO_SendPacketWithAck+0xbc>)
100437ae:	009b      	lsls	r3, r3, #2
100437b0:	8023      	strh	r3, [r4, #0]
100437b2:	2300      	movs	r3, #0
100437b4:	4914      	ldr	r1, [pc, #80]	@ (10043808 <HAL_RADIO_SendPacketWithAck+0xc0>)
100437b6:	9803      	ldr	r0, [sp, #12]
100437b8:	63a1      	str	r1, [r4, #56]	@ 0x38
100437ba:	1ca1      	adds	r1, r4, #2
100437bc:	87cb      	strh	r3, [r1, #62]	@ 0x3e
100437be:	0021      	movs	r1, r4
100437c0:	4a12      	ldr	r2, [pc, #72]	@ (1004380c <HAL_RADIO_SendPacketWithAck+0xc4>)
100437c2:	3142      	adds	r1, #66	@ 0x42
100437c4:	70a3      	strb	r3, [r4, #2]
100437c6:	60a6      	str	r6, [r4, #8]
100437c8:	66e3      	str	r3, [r4, #108]	@ 0x6c
100437ca:	4e11      	ldr	r6, [pc, #68]	@ (10043810 <HAL_RADIO_SendPacketWithAck+0xc8>)
100437cc:	6723      	str	r3, [r4, #112]	@ 0x70
100437ce:	9b10      	ldr	r3, [sp, #64]	@ 0x40
100437d0:	7008      	strb	r0, [r1, #0]
100437d2:	0020      	movs	r0, r4
100437d4:	6362      	str	r2, [r4, #52]	@ 0x34
100437d6:	6762      	str	r2, [r4, #116]	@ 0x74
100437d8:	67a3      	str	r3, [r4, #120]	@ 0x78
100437da:	6065      	str	r5, [r4, #4]
100437dc:	62e6      	str	r6, [r4, #44]	@ 0x2c
100437de:	6326      	str	r6, [r4, #48]	@ 0x30
100437e0:	6465      	str	r5, [r4, #68]	@ 0x44
100437e2:	64a7      	str	r7, [r4, #72]	@ 0x48
100437e4:	f7ff feee 	bl	100435c4 <HAL_RADIO_SetReservedArea>
100437e8:	0030      	movs	r0, r6
100437ea:	f7ff feeb 	bl	100435c4 <HAL_RADIO_SetReservedArea>
100437ee:	0020      	movs	r0, r4
100437f0:	f7ff ff42 	bl	10043678 <HAL_RADIO_MakeActionPacketPending>
100437f4:	b009      	add	sp, #36	@ 0x24
100437f6:	bdf0      	pop	{r4, r5, r6, r7, pc}
100437f8:	10044c8c 	.word	0x10044c8c
100437fc:	200009d4 	.word	0x200009d4
10043800:	200000dc 	.word	0x200000dc
10043804:	20000844 	.word	0x20000844
10043808:	10043129 	.word	0x10043129
1004380c:	10043125 	.word	0x10043125
10043810:	20000884 	.word	0x20000884

10043814 <HAL_RADIO_TxRxCallback>:
10043814:	4770      	bx	lr

10043816 <HAL_RADIO_TxRxSeqCallback>:
10043816:	4770      	bx	lr

10043818 <HAL_RADIO_TXRX_IRQHandler>:
10043818:	b5f0      	push	{r4, r5, r6, r7, lr}
1004381a:	24c0      	movs	r4, #192	@ 0xc0
1004381c:	05e4      	lsls	r4, r4, #23
1004381e:	69e5      	ldr	r5, [r4, #28]
10043820:	6866      	ldr	r6, [r4, #4]
10043822:	b085      	sub	sp, #20
10043824:	6066      	str	r6, [r4, #4]
10043826:	4335      	orrs	r5, r6
10043828:	f000 f9ae 	bl	10043b88 <HAL_RADIO_TIMER_EndOfRadioActivityIsr>
1004382c:	01ab      	lsls	r3, r5, #6
1004382e:	d533      	bpl.n	10043898 <HAL_RADIO_TXRX_IRQHandler+0x80>
10043830:	2240      	movs	r2, #64	@ 0x40
10043832:	69e3      	ldr	r3, [r4, #28]
10043834:	4e43      	ldr	r6, [pc, #268]	@ (10043944 <HAL_RADIO_TXRX_IRQHandler+0x12c>)
10043836:	4013      	ands	r3, r2
10043838:	68b0      	ldr	r0, [r6, #8]
1004383a:	432b      	orrs	r3, r5
1004383c:	60c3      	str	r3, [r0, #12]
1004383e:	6b43      	ldr	r3, [r0, #52]	@ 0x34
10043840:	4798      	blx	r3
10043842:	68b3      	ldr	r3, [r6, #8]
10043844:	2801      	cmp	r0, #1
10043846:	d131      	bne.n	100438ac <HAL_RADIO_TXRX_IRQHandler+0x94>
10043848:	6adc      	ldr	r4, [r3, #44]	@ 0x2c
1004384a:	4a3f      	ldr	r2, [pc, #252]	@ (10043948 <HAL_RADIO_TXRX_IRQHandler+0x130>)
1004384c:	2c00      	cmp	r4, #0
1004384e:	d12f      	bne.n	100438b0 <HAL_RADIO_TXRX_IRQHandler+0x98>
10043850:	23c0      	movs	r3, #192	@ 0xc0
10043852:	2003      	movs	r0, #3
10043854:	05db      	lsls	r3, r3, #23
10043856:	68d9      	ldr	r1, [r3, #12]
10043858:	4381      	bics	r1, r0
1004385a:	60d9      	str	r1, [r3, #12]
1004385c:	68d9      	ldr	r1, [r3, #12]
1004385e:	4381      	bics	r1, r0
10043860:	60d9      	str	r1, [r3, #12]
10043862:	493a      	ldr	r1, [pc, #232]	@ (1004394c <HAL_RADIO_TXRX_IRQHandler+0x134>)
10043864:	483a      	ldr	r0, [pc, #232]	@ (10043950 <HAL_RADIO_TXRX_IRQHandler+0x138>)
10043866:	6a8b      	ldr	r3, [r1, #40]	@ 0x28
10043868:	4003      	ands	r3, r0
1004386a:	628b      	str	r3, [r1, #40]	@ 0x28
1004386c:	217f      	movs	r1, #127	@ 0x7f
1004386e:	7913      	ldrb	r3, [r2, #4]
10043870:	400b      	ands	r3, r1
10043872:	7113      	strb	r3, [r2, #4]
10043874:	68b7      	ldr	r7, [r6, #8]
10043876:	2d00      	cmp	r5, #0
10043878:	db01      	blt.n	1004387e <HAL_RADIO_TXRX_IRQHandler+0x66>
1004387a:	006b      	lsls	r3, r5, #1
1004387c:	d55c      	bpl.n	10043938 <HAL_RADIO_TXRX_IRQHandler+0x120>
1004387e:	f7ff fc55 	bl	1004312c <HAL_RADIO_ReadRSSI>
10043882:	6178      	str	r0, [r7, #20]
10043884:	a802      	add	r0, sp, #8
10043886:	f000 f95d 	bl	10043b44 <HAL_RADIO_TIMER_GetAnchorPoint>
1004388a:	68b3      	ldr	r3, [r6, #8]
1004388c:	6118      	str	r0, [r3, #16]
1004388e:	68b0      	ldr	r0, [r6, #8]
10043890:	0021      	movs	r1, r4
10043892:	6b83      	ldr	r3, [r0, #56]	@ 0x38
10043894:	60b4      	str	r4, [r6, #8]
10043896:	4798      	blx	r3
10043898:	0028      	movs	r0, r5
1004389a:	f7ff ffbb 	bl	10043814 <HAL_RADIO_TxRxCallback>
1004389e:	f000 fcf3 	bl	10044288 <HAL_RADIO_TIMER_RadioTimerIsr>
100438a2:	23c0      	movs	r3, #192	@ 0xc0
100438a4:	05db      	lsls	r3, r3, #23
100438a6:	685b      	ldr	r3, [r3, #4]
100438a8:	b005      	add	sp, #20
100438aa:	bdf0      	pop	{r4, r5, r6, r7, pc}
100438ac:	6b1c      	ldr	r4, [r3, #48]	@ 0x30
100438ae:	e7cc      	b.n	1004384a <HAL_RADIO_TXRX_IRQHandler+0x32>
100438b0:	2380      	movs	r3, #128	@ 0x80
100438b2:	7821      	ldrb	r1, [r4, #0]
100438b4:	0027      	movs	r7, r4
100438b6:	430b      	orrs	r3, r1
100438b8:	7113      	strb	r3, [r2, #4]
100438ba:	2350      	movs	r3, #80	@ 0x50
100438bc:	373c      	adds	r7, #60	@ 0x3c
100438be:	434b      	muls	r3, r1
100438c0:	7839      	ldrb	r1, [r7, #0]
100438c2:	4a24      	ldr	r2, [pc, #144]	@ (10043954 <HAL_RADIO_TXRX_IRQHandler+0x13c>)
100438c4:	9101      	str	r1, [sp, #4]
100438c6:	217f      	movs	r1, #127	@ 0x7f
100438c8:	1898      	adds	r0, r3, r2
100438ca:	7802      	ldrb	r2, [r0, #0]
100438cc:	400a      	ands	r2, r1
100438ce:	9901      	ldr	r1, [sp, #4]
100438d0:	430a      	orrs	r2, r1
100438d2:	7002      	strb	r2, [r0, #0]
100438d4:	0022      	movs	r2, r4
100438d6:	3218      	adds	r2, #24
100438d8:	6042      	str	r2, [r0, #4]
100438da:	491f      	ldr	r1, [pc, #124]	@ (10043958 <HAL_RADIO_TXRX_IRQHandler+0x140>)
100438dc:	6082      	str	r2, [r0, #8]
100438de:	78a2      	ldrb	r2, [r4, #2]
100438e0:	185b      	adds	r3, r3, r1
100438e2:	701a      	strb	r2, [r3, #0]
100438e4:	7862      	ldrb	r2, [r4, #1]
100438e6:	0753      	lsls	r3, r2, #29
100438e8:	d5c4      	bpl.n	10043874 <HAL_RADIO_TXRX_IRQHandler+0x5c>
100438ea:	23c0      	movs	r3, #192	@ 0xc0
100438ec:	2103      	movs	r1, #3
100438ee:	05db      	lsls	r3, r3, #23
100438f0:	68d8      	ldr	r0, [r3, #12]
100438f2:	4388      	bics	r0, r1
100438f4:	60d8      	str	r0, [r3, #12]
100438f6:	68d8      	ldr	r0, [r3, #12]
100438f8:	4388      	bics	r0, r1
100438fa:	60d8      	str	r0, [r3, #12]
100438fc:	0693      	lsls	r3, r2, #26
100438fe:	d512      	bpl.n	10043926 <HAL_RADIO_TXRX_IRQHandler+0x10e>
10043900:	f000 f95e 	bl	10043bc0 <HAL_RADIO_TIMER_GetCurrentSysTime>
10043904:	9001      	str	r0, [sp, #4]
10043906:	6860      	ldr	r0, [r4, #4]
10043908:	f000 f944 	bl	10043b94 <HAL_RADIO_TIMER_UsToSystime>
1004390c:	2301      	movs	r3, #1
1004390e:	7839      	ldrb	r1, [r7, #0]
10043910:	7862      	ldrb	r2, [r4, #1]
10043912:	3980      	subs	r1, #128	@ 0x80
10043914:	401a      	ands	r2, r3
10043916:	424b      	negs	r3, r1
10043918:	4159      	adcs	r1, r3
1004391a:	9b01      	ldr	r3, [sp, #4]
1004391c:	b2c9      	uxtb	r1, r1
1004391e:	18c0      	adds	r0, r0, r3
10043920:	f000 fa5a 	bl	10043dd8 <HAL_RADIO_TIMER_SetRadioTimerValue>
10043924:	e7a6      	b.n	10043874 <HAL_RADIO_TXRX_IRQHandler+0x5c>
10043926:	2301      	movs	r3, #1
10043928:	9901      	ldr	r1, [sp, #4]
1004392a:	401a      	ands	r2, r3
1004392c:	3980      	subs	r1, #128	@ 0x80
1004392e:	424b      	negs	r3, r1
10043930:	4159      	adcs	r1, r3
10043932:	6860      	ldr	r0, [r4, #4]
10043934:	b2c9      	uxtb	r1, r1
10043936:	e7f3      	b.n	10043920 <HAL_RADIO_TXRX_IRQHandler+0x108>
10043938:	016b      	lsls	r3, r5, #5
1004393a:	d5a8      	bpl.n	1004388e <HAL_RADIO_TXRX_IRQHandler+0x76>
1004393c:	f7ff fbf6 	bl	1004312c <HAL_RADIO_ReadRSSI>
10043940:	6178      	str	r0, [r7, #20]
10043942:	e7a4      	b.n	1004388e <HAL_RADIO_TXRX_IRQHandler+0x76>
10043944:	200008c4 	.word	0x200008c4
10043948:	200000c0 	.word	0x200000c0
1004394c:	60001800 	.word	0x60001800
10043950:	bfffffff 	.word	0xbfffffff
10043954:	200000dc 	.word	0x200000dc
10043958:	20000107 	.word	0x20000107

1004395c <HAL_RADIO_TXRX_SEQ_IRQHandler>:
1004395c:	b510      	push	{r4, lr}
1004395e:	f7ff ff5a 	bl	10043816 <HAL_RADIO_TxRxSeqCallback>
10043962:	bd10      	pop	{r4, pc}

10043964 <_us_to_machinetime>:
10043964:	2100      	movs	r1, #0
10043966:	4b0a      	ldr	r3, [pc, #40]	@ (10043990 <_us_to_machinetime+0x2c>)
10043968:	0002      	movs	r2, r0
1004396a:	b510      	push	{r4, lr}
1004396c:	6958      	ldr	r0, [r3, #20]
1004396e:	000b      	movs	r3, r1
10043970:	f7fc fc6c 	bl	1004024c <__aeabi_lmul>
10043974:	2203      	movs	r2, #3
10043976:	2300      	movs	r3, #0
10043978:	f7fc fc68 	bl	1004024c <__aeabi_lmul>
1004397c:	2280      	movs	r2, #128	@ 0x80
1004397e:	2300      	movs	r3, #0
10043980:	04d2      	lsls	r2, r2, #19
10043982:	1880      	adds	r0, r0, r2
10043984:	4159      	adcs	r1, r3
10043986:	014b      	lsls	r3, r1, #5
10043988:	0ec0      	lsrs	r0, r0, #27
1004398a:	4318      	orrs	r0, r3
1004398c:	bd10      	pop	{r4, pc}
1004398e:	46c0      	nop			@ (mov r8, r8)
10043990:	200008d0 	.word	0x200008d0

10043994 <_calibration_callback>:
10043994:	4906      	ldr	r1, [pc, #24]	@ (100439b0 <_calibration_callback+0x1c>)
10043996:	780b      	ldrb	r3, [r1, #0]
10043998:	2b00      	cmp	r3, #0
1004399a:	d006      	beq.n	100439aa <_calibration_callback+0x16>
1004399c:	2201      	movs	r2, #1
1004399e:	4b05      	ldr	r3, [pc, #20]	@ (100439b4 <_calibration_callback+0x20>)
100439a0:	6918      	ldr	r0, [r3, #16]
100439a2:	4302      	orrs	r2, r0
100439a4:	611a      	str	r2, [r3, #16]
100439a6:	2200      	movs	r2, #0
100439a8:	609a      	str	r2, [r3, #8]
100439aa:	2301      	movs	r3, #1
100439ac:	720b      	strb	r3, [r1, #8]
100439ae:	4770      	bx	lr
100439b0:	200008d0 	.word	0x200008d0
100439b4:	60001000 	.word	0x60001000

100439b8 <_get_calibration_data.constprop.0>:
100439b8:	b530      	push	{r4, r5, lr}
100439ba:	4910      	ldr	r1, [pc, #64]	@ (100439fc <_get_calibration_data.constprop.0+0x44>)
100439bc:	6888      	ldr	r0, [r1, #8]
100439be:	688b      	ldr	r3, [r1, #8]
100439c0:	4283      	cmp	r3, r0
100439c2:	d1fb      	bne.n	100439bc <_get_calibration_data.constprop.0+0x4>
100439c4:	2800      	cmp	r0, #0
100439c6:	d0f9      	beq.n	100439bc <_get_calibration_data.constprop.0+0x4>
100439c8:	4c0d      	ldr	r4, [pc, #52]	@ (10043a00 <_get_calibration_data.constprop.0+0x48>)
100439ca:	b2c3      	uxtb	r3, r0
100439cc:	4363      	muls	r3, r4
100439ce:	1205      	asrs	r5, r0, #8
100439d0:	436c      	muls	r4, r5
100439d2:	121b      	asrs	r3, r3, #8
100439d4:	191b      	adds	r3, r3, r4
100439d6:	4a0b      	ldr	r2, [pc, #44]	@ (10043a04 <_get_calibration_data.constprop.0+0x4c>)
100439d8:	3310      	adds	r3, #16
100439da:	115b      	asrs	r3, r3, #5
100439dc:	61d3      	str	r3, [r2, #28]
100439de:	6110      	str	r0, [r2, #16]
100439e0:	68c8      	ldr	r0, [r1, #12]
100439e2:	68cb      	ldr	r3, [r1, #12]
100439e4:	4283      	cmp	r3, r0
100439e6:	d1fb      	bne.n	100439e0 <_get_calibration_data.constprop.0+0x28>
100439e8:	2800      	cmp	r0, #0
100439ea:	d0f9      	beq.n	100439e0 <_get_calibration_data.constprop.0+0x28>
100439ec:	4b06      	ldr	r3, [pc, #24]	@ (10043a08 <_get_calibration_data.constprop.0+0x50>)
100439ee:	1181      	asrs	r1, r0, #6
100439f0:	434b      	muls	r3, r1
100439f2:	3380      	adds	r3, #128	@ 0x80
100439f4:	121b      	asrs	r3, r3, #8
100439f6:	6193      	str	r3, [r2, #24]
100439f8:	6150      	str	r0, [r2, #20]
100439fa:	bd30      	pop	{r4, r5, pc}
100439fc:	60001000 	.word	0x60001000
10043a00:	0008bcf6 	.word	0x0008bcf6
10043a04:	200008d0 	.word	0x200008d0
10043a08:	00000753 	.word	0x00000753

10043a0c <_get_system_time_and_machine.constprop.0>:
10043a0c:	b5f8      	push	{r3, r4, r5, r6, r7, lr}
10043a0e:	f3ef 8710 	mrs	r7, PRIMASK
10043a12:	b672      	cpsid	i
10043a14:	4b14      	ldr	r3, [pc, #80]	@ (10043a68 <_get_system_time_and_machine.constprop.0+0x5c>)
10043a16:	4e15      	ldr	r6, [pc, #84]	@ (10043a6c <_get_system_time_and_machine.constprop.0+0x60>)
10043a18:	691b      	ldr	r3, [r3, #16]
10043a1a:	6f34      	ldr	r4, [r6, #112]	@ 0x70
10043a1c:	6f75      	ldr	r5, [r6, #116]	@ 0x74
10043a1e:	1d32      	adds	r2, r6, #4
10043a20:	6003      	str	r3, [r0, #0]
10043a22:	6fd0      	ldr	r0, [r2, #124]	@ 0x7c
10043a24:	69f1      	ldr	r1, [r6, #28]
10043a26:	4a12      	ldr	r2, [pc, #72]	@ (10043a70 <_get_system_time_and_machine.constprop.0+0x64>)
10043a28:	1a18      	subs	r0, r3, r0
10043a2a:	f7fc fb49 	bl	100400c0 <blue_unit_conversion>
10043a2e:	2300      	movs	r3, #0
10043a30:	0002      	movs	r2, r0
10043a32:	18a4      	adds	r4, r4, r2
10043a34:	415d      	adcs	r5, r3
10043a36:	6ff3      	ldr	r3, [r6, #124]	@ 0x7c
10043a38:	42ab      	cmp	r3, r5
10043a3a:	d803      	bhi.n	10043a44 <_get_system_time_and_machine.constprop.0+0x38>
10043a3c:	d10c      	bne.n	10043a58 <_get_system_time_and_machine.constprop.0+0x4c>
10043a3e:	6fb3      	ldr	r3, [r6, #120]	@ 0x78
10043a40:	42a3      	cmp	r3, r4
10043a42:	d909      	bls.n	10043a58 <_get_system_time_and_machine.constprop.0+0x4c>
10043a44:	2001      	movs	r0, #1
10043a46:	4a0a      	ldr	r2, [pc, #40]	@ (10043a70 <_get_system_time_and_machine.constprop.0+0x64>)
10043a48:	69f1      	ldr	r1, [r6, #28]
10043a4a:	4240      	negs	r0, r0
10043a4c:	f7fc fb38 	bl	100400c0 <blue_unit_conversion>
10043a50:	2300      	movs	r3, #0
10043a52:	0002      	movs	r2, r0
10043a54:	18a4      	adds	r4, r4, r2
10043a56:	415d      	adcs	r5, r3
10043a58:	67b4      	str	r4, [r6, #120]	@ 0x78
10043a5a:	67f5      	str	r5, [r6, #124]	@ 0x7c
10043a5c:	f387 8810 	msr	PRIMASK, r7
10043a60:	0029      	movs	r1, r5
10043a62:	0020      	movs	r0, r4
10043a64:	bdf8      	pop	{r3, r4, r5, r6, r7, pc}
10043a66:	46c0      	nop			@ (mov r8, r8)
10043a68:	60001800 	.word	0x60001800
10043a6c:	200008d0 	.word	0x200008d0
10043a70:	00000635 	.word	0x00000635

10043a74 <_configureTxRxDelay.constprop.0>:
10043a74:	b5f8      	push	{r3, r4, r5, r6, r7, lr}
10043a76:	4c1e      	ldr	r4, [pc, #120]	@ (10043af0 <_configureTxRxDelay.constprop.0+0x7c>)
10043a78:	4e1e      	ldr	r6, [pc, #120]	@ (10043af4 <_configureTxRxDelay.constprop.0+0x80>)
10043a7a:	4a1f      	ldr	r2, [pc, #124]	@ (10043af8 <_configureTxRxDelay.constprop.0+0x84>)
10043a7c:	69a1      	ldr	r1, [r4, #24]
10043a7e:	0007      	movs	r7, r0
10043a80:	201b      	movs	r0, #27
10043a82:	7bb5      	ldrb	r5, [r6, #14]
10043a84:	f7fc fb1c 	bl	100400c0 <blue_unit_conversion>
10043a88:	b2c0      	uxtb	r0, r0
10043a8a:	7170      	strb	r0, [r6, #5]
10043a8c:	79b0      	ldrb	r0, [r6, #6]
10043a8e:	b2ed      	uxtb	r5, r5
10043a90:	b2c0      	uxtb	r0, r0
10043a92:	f7ff ff67 	bl	10043964 <_us_to_machinetime>
10043a96:	0023      	movs	r3, r4
10043a98:	333d      	adds	r3, #61	@ 0x3d
10043a9a:	7018      	strb	r0, [r3, #0]
10043a9c:	7a30      	ldrb	r0, [r6, #8]
10043a9e:	10ed      	asrs	r5, r5, #3
10043aa0:	3501      	adds	r5, #1
10043aa2:	1940      	adds	r0, r0, r5
10043aa4:	f7ff ff5e 	bl	10043964 <_us_to_machinetime>
10043aa8:	0023      	movs	r3, r4
10043aaa:	3338      	adds	r3, #56	@ 0x38
10043aac:	7018      	strb	r0, [r3, #0]
10043aae:	7a70      	ldrb	r0, [r6, #9]
10043ab0:	1940      	adds	r0, r0, r5
10043ab2:	f7ff ff57 	bl	10043964 <_us_to_machinetime>
10043ab6:	0023      	movs	r3, r4
10043ab8:	3339      	adds	r3, #57	@ 0x39
10043aba:	7018      	strb	r0, [r3, #0]
10043abc:	7ab0      	ldrb	r0, [r6, #10]
10043abe:	b2c0      	uxtb	r0, r0
10043ac0:	f7ff ff50 	bl	10043964 <_us_to_machinetime>
10043ac4:	0023      	movs	r3, r4
10043ac6:	333a      	adds	r3, #58	@ 0x3a
10043ac8:	7018      	strb	r0, [r3, #0]
10043aca:	7af0      	ldrb	r0, [r6, #11]
10043acc:	b2c0      	uxtb	r0, r0
10043ace:	f7ff ff49 	bl	10043964 <_us_to_machinetime>
10043ad2:	0023      	movs	r3, r4
10043ad4:	333b      	adds	r3, #59	@ 0x3b
10043ad6:	7018      	strb	r0, [r3, #0]
10043ad8:	2f00      	cmp	r7, #0
10043ada:	d007      	beq.n	10043aec <_configureTxRxDelay.constprop.0+0x78>
10043adc:	2368      	movs	r3, #104	@ 0x68
10043ade:	7a32      	ldrb	r2, [r6, #8]
10043ae0:	343c      	adds	r4, #60	@ 0x3c
10043ae2:	1952      	adds	r2, r2, r5
10043ae4:	4353      	muls	r3, r2
10043ae6:	0a1b      	lsrs	r3, r3, #8
10043ae8:	331b      	adds	r3, #27
10043aea:	7023      	strb	r3, [r4, #0]
10043aec:	bdf8      	pop	{r3, r4, r5, r6, r7, pc}
10043aee:	46c0      	nop			@ (mov r8, r8)
10043af0:	200008d0 	.word	0x200008d0
10043af4:	200000c0 	.word	0x200000c0
10043af8:	00000326 	.word	0x00000326

10043afc <TIMER_GetRadioTimerValue>:
10043afc:	4a10      	ldr	r2, [pc, #64]	@ (10043b40 <TIMER_GetRadioTimerValue+0x44>)
10043afe:	b530      	push	{r4, r5, lr}
10043b00:	6a95      	ldr	r5, [r2, #40]	@ 0x28
10043b02:	2180      	movs	r1, #128	@ 0x80
10043b04:	0003      	movs	r3, r0
10043b06:	0028      	movs	r0, r5
10043b08:	05c9      	lsls	r1, r1, #23
10043b0a:	2403      	movs	r4, #3
10043b0c:	4008      	ands	r0, r1
10043b0e:	420d      	tst	r5, r1
10043b10:	d003      	beq.n	10043b1a <TIMER_GetRadioTimerValue+0x1e>
10043b12:	0020      	movs	r0, r4
10043b14:	6a52      	ldr	r2, [r2, #36]	@ 0x24
10043b16:	601a      	str	r2, [r3, #0]
10043b18:	bd30      	pop	{r4, r5, pc}
10043b1a:	22c0      	movs	r2, #192	@ 0xc0
10043b1c:	05d2      	lsls	r2, r2, #23
10043b1e:	68d1      	ldr	r1, [r2, #12]
10043b20:	4021      	ands	r1, r4
10043b22:	2902      	cmp	r1, #2
10043b24:	d007      	beq.n	10043b36 <TIMER_GetRadioTimerValue+0x3a>
10043b26:	68d1      	ldr	r1, [r2, #12]
10043b28:	4021      	ands	r1, r4
10043b2a:	2903      	cmp	r1, #3
10043b2c:	d1f4      	bne.n	10043b18 <TIMER_GetRadioTimerValue+0x1c>
10043b2e:	6912      	ldr	r2, [r2, #16]
10043b30:	2002      	movs	r0, #2
10043b32:	601a      	str	r2, [r3, #0]
10043b34:	e7f0      	b.n	10043b18 <TIMER_GetRadioTimerValue+0x1c>
10043b36:	6912      	ldr	r2, [r2, #16]
10043b38:	2001      	movs	r0, #1
10043b3a:	601a      	str	r2, [r3, #0]
10043b3c:	e7ec      	b.n	10043b18 <TIMER_GetRadioTimerValue+0x1c>
10043b3e:	46c0      	nop			@ (mov r8, r8)
10043b40:	60001800 	.word	0x60001800

10043b44 <HAL_RADIO_TIMER_GetAnchorPoint>:
10043b44:	23c0      	movs	r3, #192	@ 0xc0
10043b46:	b537      	push	{r0, r1, r2, r4, r5, lr}
10043b48:	05db      	lsls	r3, r3, #23
10043b4a:	0004      	movs	r4, r0
10043b4c:	a801      	add	r0, sp, #4
10043b4e:	695d      	ldr	r5, [r3, #20]
10043b50:	f7ff ff5c 	bl	10043a0c <_get_system_time_and_machine.constprop.0>
10043b54:	4b08      	ldr	r3, [pc, #32]	@ (10043b78 <HAL_RADIO_TIMER_GetAnchorPoint+0x34>)
10043b56:	6020      	str	r0, [r4, #0]
10043b58:	6061      	str	r1, [r4, #4]
10043b5a:	9801      	ldr	r0, [sp, #4]
10043b5c:	69d9      	ldr	r1, [r3, #28]
10043b5e:	4a07      	ldr	r2, [pc, #28]	@ (10043b7c <HAL_RADIO_TIMER_GetAnchorPoint+0x38>)
10043b60:	1b40      	subs	r0, r0, r5
10043b62:	f7fc faad 	bl	100400c0 <blue_unit_conversion>
10043b66:	2300      	movs	r3, #0
10043b68:	0002      	movs	r2, r0
10043b6a:	6820      	ldr	r0, [r4, #0]
10043b6c:	6861      	ldr	r1, [r4, #4]
10043b6e:	1a80      	subs	r0, r0, r2
10043b70:	4199      	sbcs	r1, r3
10043b72:	b003      	add	sp, #12
10043b74:	bd30      	pop	{r4, r5, pc}
10043b76:	46c0      	nop			@ (mov r8, r8)
10043b78:	200008d0 	.word	0x200008d0
10043b7c:	00000635 	.word	0x00000635

10043b80 <HAL_RADIO_TIMER_GetRadioTimerValue>:
10043b80:	b510      	push	{r4, lr}
10043b82:	f7ff ffbb 	bl	10043afc <TIMER_GetRadioTimerValue>
10043b86:	bd10      	pop	{r4, pc}

10043b88 <HAL_RADIO_TIMER_EndOfRadioActivityIsr>:
10043b88:	2200      	movs	r2, #0
10043b8a:	4b01      	ldr	r3, [pc, #4]	@ (10043b90 <HAL_RADIO_TIMER_EndOfRadioActivityIsr+0x8>)
10043b8c:	701a      	strb	r2, [r3, #0]
10043b8e:	4770      	bx	lr
10043b90:	20000933 	.word	0x20000933

10043b94 <HAL_RADIO_TIMER_UsToSystime>:
10043b94:	2368      	movs	r3, #104	@ 0x68
10043b96:	0002      	movs	r2, r0
10043b98:	4343      	muls	r3, r0
10043b9a:	20db      	movs	r0, #219	@ 0xdb
10043b9c:	4350      	muls	r0, r2
10043b9e:	0a1b      	lsrs	r3, r3, #8
10043ba0:	0c00      	lsrs	r0, r0, #16
10043ba2:	1818      	adds	r0, r3, r0
10043ba4:	4770      	bx	lr
	...

10043ba8 <HAL_RADIO_TIMER_MachineTimeToSysTime>:
10043ba8:	b510      	push	{r4, lr}
10043baa:	4b03      	ldr	r3, [pc, #12]	@ (10043bb8 <HAL_RADIO_TIMER_MachineTimeToSysTime+0x10>)
10043bac:	4a03      	ldr	r2, [pc, #12]	@ (10043bbc <HAL_RADIO_TIMER_MachineTimeToSysTime+0x14>)
10043bae:	69d9      	ldr	r1, [r3, #28]
10043bb0:	f7fc fa86 	bl	100400c0 <blue_unit_conversion>
10043bb4:	bd10      	pop	{r4, pc}
10043bb6:	46c0      	nop			@ (mov r8, r8)
10043bb8:	200008d0 	.word	0x200008d0
10043bbc:	00000635 	.word	0x00000635

10043bc0 <HAL_RADIO_TIMER_GetCurrentSysTime>:
10043bc0:	b507      	push	{r0, r1, r2, lr}
10043bc2:	a801      	add	r0, sp, #4
10043bc4:	f7ff ff22 	bl	10043a0c <_get_system_time_and_machine.constprop.0>
10043bc8:	b003      	add	sp, #12
10043bca:	bd00      	pop	{pc}

10043bcc <_check_radio_activity.constprop.0>:
10043bcc:	2100      	movs	r1, #0
10043bce:	b5f0      	push	{r4, r5, r6, r7, lr}
10043bd0:	4b79      	ldr	r3, [pc, #484]	@ (10043db8 <_check_radio_activity.constprop.0+0x1ec>)
10043bd2:	b089      	sub	sp, #36	@ 0x24
10043bd4:	9004      	str	r0, [sp, #16]
10043bd6:	7001      	strb	r1, [r0, #0]
10043bd8:	781b      	ldrb	r3, [r3, #0]
10043bda:	4c78      	ldr	r4, [pc, #480]	@ (10043dbc <_check_radio_activity.constprop.0+0x1f0>)
10043bdc:	428b      	cmp	r3, r1
10043bde:	d100      	bne.n	10043be2 <_check_radio_activity.constprop.0+0x16>
10043be0:	e0b2      	b.n	10043d48 <_check_radio_activity.constprop.0+0x17c>
10043be2:	000b      	movs	r3, r1
10043be4:	6aa0      	ldr	r0, [r4, #40]	@ 0x28
10043be6:	6ae1      	ldr	r1, [r4, #44]	@ 0x2c
10043be8:	6862      	ldr	r2, [r4, #4]
10043bea:	1812      	adds	r2, r2, r0
10043bec:	414b      	adcs	r3, r1
10043bee:	9202      	str	r2, [sp, #8]
10043bf0:	9303      	str	r3, [sp, #12]
10043bf2:	f3ef 8310 	mrs	r3, PRIMASK
10043bf6:	9305      	str	r3, [sp, #20]
10043bf8:	b672      	cpsid	i
10043bfa:	f7ff ffe1 	bl	10043bc0 <HAL_RADIO_TIMER_GetCurrentSysTime>
10043bfe:	6da6      	ldr	r6, [r4, #88]	@ 0x58
10043c00:	6de7      	ldr	r7, [r4, #92]	@ 0x5c
10043c02:	22c8      	movs	r2, #200	@ 0xc8
10043c04:	2300      	movs	r3, #0
10043c06:	0292      	lsls	r2, r2, #10
10043c08:	9000      	str	r0, [sp, #0]
10043c0a:	9101      	str	r1, [sp, #4]
10043c0c:	9802      	ldr	r0, [sp, #8]
10043c0e:	9903      	ldr	r1, [sp, #12]
10043c10:	1812      	adds	r2, r2, r0
10043c12:	414b      	adcs	r3, r1
10043c14:	42bb      	cmp	r3, r7
10043c16:	d814      	bhi.n	10043c42 <_check_radio_activity.constprop.0+0x76>
10043c18:	d101      	bne.n	10043c1e <_check_radio_activity.constprop.0+0x52>
10043c1a:	42b2      	cmp	r2, r6
10043c1c:	d811      	bhi.n	10043c42 <_check_radio_activity.constprop.0+0x76>
10043c1e:	9802      	ldr	r0, [sp, #8]
10043c20:	9903      	ldr	r1, [sp, #12]
10043c22:	22b9      	movs	r2, #185	@ 0xb9
10043c24:	2300      	movs	r3, #0
10043c26:	0052      	lsls	r2, r2, #1
10043c28:	1880      	adds	r0, r0, r2
10043c2a:	4159      	adcs	r1, r3
10043c2c:	000b      	movs	r3, r1
10043c2e:	9901      	ldr	r1, [sp, #4]
10043c30:	0002      	movs	r2, r0
10043c32:	4299      	cmp	r1, r3
10043c34:	d805      	bhi.n	10043c42 <_check_radio_activity.constprop.0+0x76>
10043c36:	d000      	beq.n	10043c3a <_check_radio_activity.constprop.0+0x6e>
10043c38:	e0ba      	b.n	10043db0 <_check_radio_activity.constprop.0+0x1e4>
10043c3a:	9900      	ldr	r1, [sp, #0]
10043c3c:	4291      	cmp	r1, r2
10043c3e:	d800      	bhi.n	10043c42 <_check_radio_activity.constprop.0+0x76>
10043c40:	e0b6      	b.n	10043db0 <_check_radio_activity.constprop.0+0x1e4>
10043c42:	204c      	movs	r0, #76	@ 0x4c
10043c44:	4240      	negs	r0, r0
10043c46:	17c1      	asrs	r1, r0, #31
10043c48:	220a      	movs	r2, #10
10043c4a:	1980      	adds	r0, r0, r6
10043c4c:	4179      	adcs	r1, r7
10043c4e:	2300      	movs	r3, #0
10043c50:	9002      	str	r0, [sp, #8]
10043c52:	9103      	str	r1, [sp, #12]
10043c54:	9800      	ldr	r0, [sp, #0]
10043c56:	9901      	ldr	r1, [sp, #4]
10043c58:	1880      	adds	r0, r0, r2
10043c5a:	4159      	adcs	r1, r3
10043c5c:	000b      	movs	r3, r1
10043c5e:	9903      	ldr	r1, [sp, #12]
10043c60:	0002      	movs	r2, r0
10043c62:	4299      	cmp	r1, r3
10043c64:	d805      	bhi.n	10043c72 <_check_radio_activity.constprop.0+0xa6>
10043c66:	d000      	beq.n	10043c6a <_check_radio_activity.constprop.0+0x9e>
10043c68:	e09b      	b.n	10043da2 <_check_radio_activity.constprop.0+0x1d6>
10043c6a:	9902      	ldr	r1, [sp, #8]
10043c6c:	4291      	cmp	r1, r2
10043c6e:	d800      	bhi.n	10043c72 <_check_radio_activity.constprop.0+0xa6>
10043c70:	e097      	b.n	10043da2 <_check_radio_activity.constprop.0+0x1d6>
10043c72:	0022      	movs	r2, r4
10043c74:	323c      	adds	r2, #60	@ 0x3c
10043c76:	7815      	ldrb	r5, [r2, #0]
10043c78:	0022      	movs	r2, r4
10043c7a:	0023      	movs	r3, r4
10043c7c:	3264      	adds	r2, #100	@ 0x64
10043c7e:	7812      	ldrb	r2, [r2, #0]
10043c80:	3360      	adds	r3, #96	@ 0x60
10043c82:	781b      	ldrb	r3, [r3, #0]
10043c84:	2a00      	cmp	r2, #0
10043c86:	d063      	beq.n	10043d50 <_check_radio_activity.constprop.0+0x184>
10043c88:	2b00      	cmp	r3, #0
10043c8a:	d05f      	beq.n	10043d4c <_check_radio_activity.constprop.0+0x180>
10043c8c:	3438      	adds	r4, #56	@ 0x38
10043c8e:	a807      	add	r0, sp, #28
10043c90:	7824      	ldrb	r4, [r4, #0]
10043c92:	f7ff febb 	bl	10043a0c <_get_system_time_and_machine.constprop.0>
10043c96:	1a37      	subs	r7, r6, r0
10043c98:	4e48      	ldr	r6, [pc, #288]	@ (10043dbc <_check_radio_activity.constprop.0+0x1f0>)
10043c9a:	4a49      	ldr	r2, [pc, #292]	@ (10043dc0 <_check_radio_activity.constprop.0+0x1f4>)
10043c9c:	0038      	movs	r0, r7
10043c9e:	69b1      	ldr	r1, [r6, #24]
10043ca0:	f7fc fa0e 	bl	100400c0 <blue_unit_conversion>
10043ca4:	6eb3      	ldr	r3, [r6, #104]	@ 0x68
10043ca6:	4a47      	ldr	r2, [pc, #284]	@ (10043dc4 <_check_radio_activity.constprop.0+0x1f8>)
10043ca8:	33c8      	adds	r3, #200	@ 0xc8
10043caa:	195b      	adds	r3, r3, r5
10043cac:	4d46      	ldr	r5, [pc, #280]	@ (10043dc8 <_check_radio_activity.constprop.0+0x1fc>)
10043cae:	429f      	cmp	r7, r3
10043cb0:	d954      	bls.n	10043d5c <_check_radio_activity.constprop.0+0x190>
10043cb2:	2607      	movs	r6, #7
10043cb4:	796b      	ldrb	r3, [r5, #5]
10043cb6:	9907      	ldr	r1, [sp, #28]
10043cb8:	1ac3      	subs	r3, r0, r3
10043cba:	1b1b      	subs	r3, r3, r4
10043cbc:	1859      	adds	r1, r3, r1
10043cbe:	6251      	str	r1, [r2, #36]	@ 0x24
10043cc0:	6a91      	ldr	r1, [r2, #40]	@ 0x28
10043cc2:	2703      	movs	r7, #3
10043cc4:	43b1      	bics	r1, r6
10043cc6:	6291      	str	r1, [r2, #40]	@ 0x28
10043cc8:	21c0      	movs	r1, #192	@ 0xc0
10043cca:	05c9      	lsls	r1, r1, #23
10043ccc:	68ce      	ldr	r6, [r1, #12]
10043cce:	43be      	bics	r6, r7
10043cd0:	60ce      	str	r6, [r1, #12]
10043cd2:	68ce      	ldr	r6, [r1, #12]
10043cd4:	43be      	bics	r6, r7
10043cd6:	60ce      	str	r6, [r1, #12]
10043cd8:	2180      	movs	r1, #128	@ 0x80
10043cda:	6a96      	ldr	r6, [r2, #40]	@ 0x28
10043cdc:	05c9      	lsls	r1, r1, #23
10043cde:	4331      	orrs	r1, r6
10043ce0:	6291      	str	r1, [r2, #40]	@ 0x28
10043ce2:	2180      	movs	r1, #128	@ 0x80
10043ce4:	6a96      	ldr	r6, [r2, #40]	@ 0x28
10043ce6:	0589      	lsls	r1, r1, #22
10043ce8:	4331      	orrs	r1, r6
10043cea:	6291      	str	r1, [r2, #40]	@ 0x28
10043cec:	796e      	ldrb	r6, [r5, #5]
10043cee:	1936      	adds	r6, r6, r4
10043cf0:	9907      	ldr	r1, [sp, #28]
10043cf2:	4f36      	ldr	r7, [pc, #216]	@ (10043dcc <_check_radio_activity.constprop.0+0x200>)
10043cf4:	1809      	adds	r1, r1, r0
10043cf6:	2080      	movs	r0, #128	@ 0x80
10043cf8:	6039      	str	r1, [r7, #0]
10043cfa:	7929      	ldrb	r1, [r5, #4]
10043cfc:	199b      	adds	r3, r3, r6
10043cfe:	4301      	orrs	r1, r0
10043d00:	7129      	strb	r1, [r5, #4]
10043d02:	21f0      	movs	r1, #240	@ 0xf0
10043d04:	75a9      	strb	r1, [r5, #22]
10043d06:	310f      	adds	r1, #15
10043d08:	75e9      	strb	r1, [r5, #23]
10043d0a:	1d71      	adds	r1, r6, #5
10043d0c:	4c2b      	ldr	r4, [pc, #172]	@ (10043dbc <_check_radio_activity.constprop.0+0x1f0>)
10043d0e:	428b      	cmp	r3, r1
10043d10:	d23d      	bcs.n	10043d8e <_check_radio_activity.constprop.0+0x1c2>
10043d12:	23c0      	movs	r3, #192	@ 0xc0
10043d14:	05db      	lsls	r3, r3, #23
10043d16:	68d9      	ldr	r1, [r3, #12]
10043d18:	387d      	subs	r0, #125	@ 0x7d
10043d1a:	4381      	bics	r1, r0
10043d1c:	60d9      	str	r1, [r3, #12]
10043d1e:	68d9      	ldr	r1, [r3, #12]
10043d20:	4381      	bics	r1, r0
10043d22:	60d9      	str	r1, [r3, #12]
10043d24:	6a93      	ldr	r3, [r2, #40]	@ 0x28
10043d26:	492a      	ldr	r1, [pc, #168]	@ (10043dd0 <_check_radio_activity.constprop.0+0x204>)
10043d28:	400b      	ands	r3, r1
10043d2a:	6293      	str	r3, [r2, #40]	@ 0x28
10043d2c:	2301      	movs	r3, #1
10043d2e:	9a04      	ldr	r2, [sp, #16]
10043d30:	7013      	strb	r3, [r2, #0]
10043d32:	0023      	movs	r3, r4
10043d34:	2201      	movs	r2, #1
10043d36:	3361      	adds	r3, #97	@ 0x61
10043d38:	701a      	strb	r2, [r3, #0]
10043d3a:	2380      	movs	r3, #128	@ 0x80
10043d3c:	3462      	adds	r4, #98	@ 0x62
10043d3e:	005b      	lsls	r3, r3, #1
10043d40:	8023      	strh	r3, [r4, #0]
10043d42:	9b05      	ldr	r3, [sp, #20]
10043d44:	f383 8810 	msr	PRIMASK, r3
10043d48:	b009      	add	sp, #36	@ 0x24
10043d4a:	bdf0      	pop	{r4, r5, r6, r7, pc}
10043d4c:	3439      	adds	r4, #57	@ 0x39
10043d4e:	e79e      	b.n	10043c8e <_check_radio_activity.constprop.0+0xc2>
10043d50:	2b00      	cmp	r3, #0
10043d52:	d001      	beq.n	10043d58 <_check_radio_activity.constprop.0+0x18c>
10043d54:	343a      	adds	r4, #58	@ 0x3a
10043d56:	e79a      	b.n	10043c8e <_check_radio_activity.constprop.0+0xc2>
10043d58:	343b      	adds	r4, #59	@ 0x3b
10043d5a:	e798      	b.n	10043c8e <_check_radio_activity.constprop.0+0xc2>
10043d5c:	363d      	adds	r6, #61	@ 0x3d
10043d5e:	7833      	ldrb	r3, [r6, #0]
10043d60:	26c0      	movs	r6, #192	@ 0xc0
10043d62:	9300      	str	r3, [sp, #0]
10043d64:	9f07      	ldr	r7, [sp, #28]
10043d66:	1ac3      	subs	r3, r0, r3
10043d68:	1b1b      	subs	r3, r3, r4
10043d6a:	05f6      	lsls	r6, r6, #23
10043d6c:	19df      	adds	r7, r3, r7
10043d6e:	6137      	str	r7, [r6, #16]
10043d70:	6a97      	ldr	r7, [r2, #40]	@ 0x28
10043d72:	4917      	ldr	r1, [pc, #92]	@ (10043dd0 <_check_radio_activity.constprop.0+0x204>)
10043d74:	400f      	ands	r7, r1
10043d76:	2103      	movs	r1, #3
10043d78:	6297      	str	r7, [r2, #40]	@ 0x28
10043d7a:	68f7      	ldr	r7, [r6, #12]
10043d7c:	438f      	bics	r7, r1
10043d7e:	46bc      	mov	ip, r7
10043d80:	2702      	movs	r7, #2
10043d82:	4661      	mov	r1, ip
10043d84:	430f      	orrs	r7, r1
10043d86:	9900      	ldr	r1, [sp, #0]
10043d88:	60f7      	str	r7, [r6, #12]
10043d8a:	1866      	adds	r6, r4, r1
10043d8c:	e7b0      	b.n	10043cf0 <_check_radio_activity.constprop.0+0x124>
10043d8e:	0030      	movs	r0, r6
10043d90:	4a10      	ldr	r2, [pc, #64]	@ (10043dd4 <_check_radio_activity.constprop.0+0x208>)
10043d92:	69e1      	ldr	r1, [r4, #28]
10043d94:	f7fc f994 	bl	100400c0 <blue_unit_conversion>
10043d98:	0023      	movs	r3, r4
10043d9a:	3384      	adds	r3, #132	@ 0x84
10043d9c:	7018      	strb	r0, [r3, #0]
10043d9e:	2300      	movs	r3, #0
10043da0:	e7c5      	b.n	10043d2e <_check_radio_activity.constprop.0+0x162>
10043da2:	2200      	movs	r2, #0
10043da4:	4b04      	ldr	r3, [pc, #16]	@ (10043db8 <_check_radio_activity.constprop.0+0x1ec>)
10043da6:	701a      	strb	r2, [r3, #0]
10043da8:	2301      	movs	r3, #1
10043daa:	9a04      	ldr	r2, [sp, #16]
10043dac:	7013      	strb	r3, [r2, #0]
10043dae:	e7c8      	b.n	10043d42 <_check_radio_activity.constprop.0+0x176>
10043db0:	2301      	movs	r3, #1
10043db2:	349c      	adds	r4, #156	@ 0x9c
10043db4:	7023      	strb	r3, [r4, #0]
10043db6:	e7c4      	b.n	10043d42 <_check_radio_activity.constprop.0+0x176>
10043db8:	20000932 	.word	0x20000932
10043dbc:	200008d0 	.word	0x200008d0
10043dc0:	00000326 	.word	0x00000326
10043dc4:	60001800 	.word	0x60001800
10043dc8:	200000c0 	.word	0x200000c0
10043dcc:	20000958 	.word	0x20000958
10043dd0:	bfffffff 	.word	0xbfffffff
10043dd4:	00000635 	.word	0x00000635

10043dd8 <HAL_RADIO_TIMER_SetRadioTimerValue>:
10043dd8:	b5f7      	push	{r0, r1, r2, r4, r5, r6, r7, lr}
10043dda:	2500      	movs	r5, #0
10043ddc:	466b      	mov	r3, sp
10043dde:	71dd      	strb	r5, [r3, #7]
10043de0:	1e4b      	subs	r3, r1, #1
10043de2:	4199      	sbcs	r1, r3
10043de4:	4c32      	ldr	r4, [pc, #200]	@ (10043eb0 <HAL_RADIO_TIMER_SetRadioTimerValue+0xd8>)
10043de6:	4b33      	ldr	r3, [pc, #204]	@ (10043eb4 <HAL_RADIO_TIMER_SetRadioTimerValue+0xdc>)
10043de8:	6aa6      	ldr	r6, [r4, #40]	@ 0x28
10043dea:	6ae7      	ldr	r7, [r4, #44]	@ 0x2c
10043dec:	7019      	strb	r1, [r3, #0]
10043dee:	1e53      	subs	r3, r2, #1
10043df0:	419a      	sbcs	r2, r3
10043df2:	0023      	movs	r3, r4
10043df4:	3360      	adds	r3, #96	@ 0x60
10043df6:	701a      	strb	r2, [r3, #0]
10043df8:	002b      	movs	r3, r5
10043dfa:	1b82      	subs	r2, r0, r6
10043dfc:	1992      	adds	r2, r2, r6
10043dfe:	417b      	adcs	r3, r7
10043e00:	65a2      	str	r2, [r4, #88]	@ 0x58
10043e02:	65e3      	str	r3, [r4, #92]	@ 0x5c
10043e04:	0023      	movs	r3, r4
10043e06:	3361      	adds	r3, #97	@ 0x61
10043e08:	701d      	strb	r5, [r3, #0]
10043e0a:	0023      	movs	r3, r4
10043e0c:	2201      	movs	r2, #1
10043e0e:	3362      	adds	r3, #98	@ 0x62
10043e10:	801a      	strh	r2, [r3, #0]
10043e12:	f7ff fed5 	bl	10043bc0 <HAL_RADIO_TIMER_GetCurrentSysTime>
10043e16:	0023      	movs	r3, r4
10043e18:	338c      	adds	r3, #140	@ 0x8c
10043e1a:	681d      	ldr	r5, [r3, #0]
10043e1c:	2d00      	cmp	r5, #0
10043e1e:	d10f      	bne.n	10043e40 <HAL_RADIO_TIMER_SetRadioTimerValue+0x68>
10043e20:	466b      	mov	r3, sp
10043e22:	1dd8      	adds	r0, r3, #7
10043e24:	f7ff fed2 	bl	10043bcc <_check_radio_activity.constprop.0>
10043e28:	3490      	adds	r4, #144	@ 0x90
10043e2a:	7823      	ldrb	r3, [r4, #0]
10043e2c:	2b00      	cmp	r3, #0
10043e2e:	d104      	bne.n	10043e3a <HAL_RADIO_TIMER_SetRadioTimerValue+0x62>
10043e30:	4821      	ldr	r0, [pc, #132]	@ (10043eb8 <HAL_RADIO_TIMER_SetRadioTimerValue+0xe0>)
10043e32:	f7ff fdaf 	bl	10043994 <_calibration_callback>
10043e36:	2301      	movs	r3, #1
10043e38:	7023      	strb	r3, [r4, #0]
10043e3a:	466b      	mov	r3, sp
10043e3c:	79d8      	ldrb	r0, [r3, #7]
10043e3e:	bdfe      	pop	{r1, r2, r3, r4, r5, r6, r7, pc}
10043e40:	682e      	ldr	r6, [r5, #0]
10043e42:	686f      	ldr	r7, [r5, #4]
10043e44:	42b9      	cmp	r1, r7
10043e46:	d812      	bhi.n	10043e6e <HAL_RADIO_TIMER_SetRadioTimerValue+0x96>
10043e48:	d101      	bne.n	10043e4e <HAL_RADIO_TIMER_SetRadioTimerValue+0x76>
10043e4a:	42b0      	cmp	r0, r6
10043e4c:	d80f      	bhi.n	10043e6e <HAL_RADIO_TIMER_SetRadioTimerValue+0x96>
10043e4e:	0021      	movs	r1, r4
10043e50:	2300      	movs	r3, #0
10043e52:	3198      	adds	r1, #152	@ 0x98
10043e54:	680a      	ldr	r2, [r1, #0]
10043e56:	6de1      	ldr	r1, [r4, #92]	@ 0x5c
10043e58:	18b6      	adds	r6, r6, r2
10043e5a:	415f      	adcs	r7, r3
10043e5c:	42b9      	cmp	r1, r7
10043e5e:	d306      	bcc.n	10043e6e <HAL_RADIO_TIMER_SetRadioTimerValue+0x96>
10043e60:	d102      	bne.n	10043e68 <HAL_RADIO_TIMER_SetRadioTimerValue+0x90>
10043e62:	6da3      	ldr	r3, [r4, #88]	@ 0x58
10043e64:	42b3      	cmp	r3, r6
10043e66:	d302      	bcc.n	10043e6e <HAL_RADIO_TIMER_SetRadioTimerValue+0x96>
10043e68:	7b2b      	ldrb	r3, [r5, #12]
10043e6a:	2b00      	cmp	r3, #0
10043e6c:	d117      	bne.n	10043e9e <HAL_RADIO_TIMER_SetRadioTimerValue+0xc6>
10043e6e:	466b      	mov	r3, sp
10043e70:	1dd8      	adds	r0, r3, #7
10043e72:	f7ff feab 	bl	10043bcc <_check_radio_activity.constprop.0>
10043e76:	0023      	movs	r3, r4
10043e78:	338c      	adds	r3, #140	@ 0x8c
10043e7a:	681b      	ldr	r3, [r3, #0]
10043e7c:	6de2      	ldr	r2, [r4, #92]	@ 0x5c
10043e7e:	6859      	ldr	r1, [r3, #4]
10043e80:	4291      	cmp	r1, r2
10043e82:	d8d1      	bhi.n	10043e28 <HAL_RADIO_TIMER_SetRadioTimerValue+0x50>
10043e84:	d103      	bne.n	10043e8e <HAL_RADIO_TIMER_SetRadioTimerValue+0xb6>
10043e86:	6819      	ldr	r1, [r3, #0]
10043e88:	6da2      	ldr	r2, [r4, #88]	@ 0x58
10043e8a:	4291      	cmp	r1, r2
10043e8c:	d8cc      	bhi.n	10043e28 <HAL_RADIO_TIMER_SetRadioTimerValue+0x50>
10043e8e:	7b1b      	ldrb	r3, [r3, #12]
10043e90:	2b00      	cmp	r3, #0
10043e92:	d0c9      	beq.n	10043e28 <HAL_RADIO_TIMER_SetRadioTimerValue+0x50>
10043e94:	0023      	movs	r3, r4
10043e96:	2201      	movs	r2, #1
10043e98:	3395      	adds	r3, #149	@ 0x95
10043e9a:	701a      	strb	r2, [r3, #0]
10043e9c:	e7c4      	b.n	10043e28 <HAL_RADIO_TIMER_SetRadioTimerValue+0x50>
10043e9e:	217f      	movs	r1, #127	@ 0x7f
10043ea0:	4b06      	ldr	r3, [pc, #24]	@ (10043ebc <HAL_RADIO_TIMER_SetRadioTimerValue+0xe4>)
10043ea2:	791a      	ldrb	r2, [r3, #4]
10043ea4:	400a      	ands	r2, r1
10043ea6:	711a      	strb	r2, [r3, #4]
10043ea8:	2200      	movs	r2, #0
10043eaa:	759a      	strb	r2, [r3, #22]
10043eac:	75da      	strb	r2, [r3, #23]
10043eae:	e7bb      	b.n	10043e28 <HAL_RADIO_TIMER_SetRadioTimerValue+0x50>
10043eb0:	200008d0 	.word	0x200008d0
10043eb4:	20000934 	.word	0x20000934
10043eb8:	20000910 	.word	0x20000910
10043ebc:	200000c0 	.word	0x200000c0

10043ec0 <_update_user_timeout>:
10043ec0:	2300      	movs	r3, #0
10043ec2:	b5f0      	push	{r4, r5, r6, r7, lr}
10043ec4:	0004      	movs	r4, r0
10043ec6:	b08b      	sub	sp, #44	@ 0x2c
10043ec8:	9005      	str	r0, [sp, #20]
10043eca:	9104      	str	r1, [sp, #16]
10043ecc:	700b      	strb	r3, [r1, #0]
10043ece:	2c00      	cmp	r4, #0
10043ed0:	d100      	bne.n	10043ed4 <_update_user_timeout+0x14>
10043ed2:	e089      	b.n	10043fe8 <_update_user_timeout+0x128>
10043ed4:	7b23      	ldrb	r3, [r4, #12]
10043ed6:	9303      	str	r3, [sp, #12]
10043ed8:	2b00      	cmp	r3, #0
10043eda:	d100      	bne.n	10043ede <_update_user_timeout+0x1e>
10043edc:	e08b      	b.n	10043ff6 <_update_user_timeout+0x136>
10043ede:	f3ef 8310 	mrs	r3, PRIMASK
10043ee2:	9307      	str	r3, [sp, #28]
10043ee4:	b672      	cpsid	i
10043ee6:	ab08      	add	r3, sp, #32
10043ee8:	1dd8      	adds	r0, r3, #7
10043eea:	f7ff fe6f 	bl	10043bcc <_check_radio_activity.constprop.0>
10043eee:	6826      	ldr	r6, [r4, #0]
10043ef0:	6867      	ldr	r7, [r4, #4]
10043ef2:	f7ff fe65 	bl	10043bc0 <HAL_RADIO_TIMER_GetCurrentSysTime>
10043ef6:	1a36      	subs	r6, r6, r0
10043ef8:	418f      	sbcs	r7, r1
10043efa:	9600      	str	r6, [sp, #0]
10043efc:	9701      	str	r7, [sp, #4]
10043efe:	9b01      	ldr	r3, [sp, #4]
10043f00:	2b00      	cmp	r3, #0
10043f02:	dc05      	bgt.n	10043f10 <_update_user_timeout+0x50>
10043f04:	d000      	beq.n	10043f08 <_update_user_timeout+0x48>
10043f06:	e072      	b.n	10043fee <_update_user_timeout+0x12e>
10043f08:	9b00      	ldr	r3, [sp, #0]
10043f0a:	2b00      	cmp	r3, #0
10043f0c:	d100      	bne.n	10043f10 <_update_user_timeout+0x50>
10043f0e:	e06e      	b.n	10043fee <_update_user_timeout+0x12e>
10043f10:	6826      	ldr	r6, [r4, #0]
10043f12:	6867      	ldr	r7, [r4, #4]
10043f14:	2198      	movs	r1, #152	@ 0x98
10043f16:	468c      	mov	ip, r1
10043f18:	4b39      	ldr	r3, [pc, #228]	@ (10044000 <_update_user_timeout+0x140>)
10043f1a:	2100      	movs	r1, #0
10043f1c:	449c      	add	ip, r3
10043f1e:	4665      	mov	r5, ip
10043f20:	6828      	ldr	r0, [r5, #0]
10043f22:	6d9a      	ldr	r2, [r3, #88]	@ 0x58
10043f24:	1980      	adds	r0, r0, r6
10043f26:	4179      	adcs	r1, r7
10043f28:	9206      	str	r2, [sp, #24]
10043f2a:	6dda      	ldr	r2, [r3, #92]	@ 0x5c
10043f2c:	4291      	cmp	r1, r2
10043f2e:	d803      	bhi.n	10043f38 <_update_user_timeout+0x78>
10043f30:	d111      	bne.n	10043f56 <_update_user_timeout+0x96>
10043f32:	9d06      	ldr	r5, [sp, #24]
10043f34:	42a8      	cmp	r0, r5
10043f36:	d90e      	bls.n	10043f56 <_update_user_timeout+0x96>
10043f38:	3361      	adds	r3, #97	@ 0x61
10043f3a:	781b      	ldrb	r3, [r3, #0]
10043f3c:	2b00      	cmp	r3, #0
10043f3e:	d00a      	beq.n	10043f56 <_update_user_timeout+0x96>
10043f40:	4297      	cmp	r7, r2
10043f42:	d806      	bhi.n	10043f52 <_update_user_timeout+0x92>
10043f44:	d102      	bne.n	10043f4c <_update_user_timeout+0x8c>
10043f46:	9b06      	ldr	r3, [sp, #24]
10043f48:	429e      	cmp	r6, r3
10043f4a:	d802      	bhi.n	10043f52 <_update_user_timeout+0x92>
10043f4c:	2201      	movs	r2, #1
10043f4e:	4b2d      	ldr	r3, [pc, #180]	@ (10044004 <_update_user_timeout+0x144>)
10043f50:	701a      	strb	r2, [r3, #0]
10043f52:	2300      	movs	r3, #0
10043f54:	9303      	str	r3, [sp, #12]
10043f56:	4b2a      	ldr	r3, [pc, #168]	@ (10044000 <_update_user_timeout+0x140>)
10043f58:	4a2b      	ldr	r2, [pc, #172]	@ (10044008 <_update_user_timeout+0x148>)
10043f5a:	6999      	ldr	r1, [r3, #24]
10043f5c:	9800      	ldr	r0, [sp, #0]
10043f5e:	f7fc f8af 	bl	100400c0 <blue_unit_conversion>
10043f62:	4b2a      	ldr	r3, [pc, #168]	@ (1004400c <_update_user_timeout+0x14c>)
10043f64:	691a      	ldr	r2, [r3, #16]
10043f66:	2820      	cmp	r0, #32
10043f68:	d200      	bcs.n	10043f6c <_update_user_timeout+0xac>
10043f6a:	2020      	movs	r0, #32
10043f6c:	3208      	adds	r2, #8
10043f6e:	1880      	adds	r0, r0, r2
10043f70:	2280      	movs	r2, #128	@ 0x80
10043f72:	62d8      	str	r0, [r3, #44]	@ 0x2c
10043f74:	6a99      	ldr	r1, [r3, #40]	@ 0x28
10043f76:	0592      	lsls	r2, r2, #22
10043f78:	4311      	orrs	r1, r2
10043f7a:	6299      	str	r1, [r3, #40]	@ 0x28
10043f7c:	2180      	movs	r1, #128	@ 0x80
10043f7e:	25c0      	movs	r5, #192	@ 0xc0
10043f80:	2703      	movs	r7, #3
10043f82:	6b1e      	ldr	r6, [r3, #48]	@ 0x30
10043f84:	05c9      	lsls	r1, r1, #23
10043f86:	430e      	orrs	r6, r1
10043f88:	631e      	str	r6, [r3, #48]	@ 0x30
10043f8a:	05ed      	lsls	r5, r5, #23
10043f8c:	68ee      	ldr	r6, [r5, #12]
10043f8e:	403e      	ands	r6, r7
10043f90:	2e02      	cmp	r6, #2
10043f92:	d022      	beq.n	10043fda <_update_user_timeout+0x11a>
10043f94:	68ee      	ldr	r6, [r5, #12]
10043f96:	403e      	ands	r6, r7
10043f98:	42be      	cmp	r6, r7
10043f9a:	d01e      	beq.n	10043fda <_update_user_timeout+0x11a>
10043f9c:	9d03      	ldr	r5, [sp, #12]
10043f9e:	2d00      	cmp	r5, #0
10043fa0:	d01b      	beq.n	10043fda <_update_user_timeout+0x11a>
10043fa2:	4d1b      	ldr	r5, [pc, #108]	@ (10044010 <_update_user_timeout+0x150>)
10043fa4:	377c      	adds	r7, #124	@ 0x7c
10043fa6:	792e      	ldrb	r6, [r5, #4]
10043fa8:	403e      	ands	r6, r7
10043faa:	712e      	strb	r6, [r5, #4]
10043fac:	2600      	movs	r6, #0
10043fae:	75ae      	strb	r6, [r5, #22]
10043fb0:	75ee      	strb	r6, [r5, #23]
10043fb2:	250f      	movs	r5, #15
10043fb4:	43a8      	bics	r0, r5
10043fb6:	6258      	str	r0, [r3, #36]	@ 0x24
10043fb8:	6a98      	ldr	r0, [r3, #40]	@ 0x28
10043fba:	3d08      	subs	r5, #8
10043fbc:	43a8      	bics	r0, r5
10043fbe:	6298      	str	r0, [r3, #40]	@ 0x28
10043fc0:	6a98      	ldr	r0, [r3, #40]	@ 0x28
10043fc2:	4301      	orrs	r1, r0
10043fc4:	6299      	str	r1, [r3, #40]	@ 0x28
10043fc6:	6a99      	ldr	r1, [r3, #40]	@ 0x28
10043fc8:	430a      	orrs	r2, r1
10043fca:	629a      	str	r2, [r3, #40]	@ 0x28
10043fcc:	4a11      	ldr	r2, [pc, #68]	@ (10044014 <_update_user_timeout+0x154>)
10043fce:	4b12      	ldr	r3, [pc, #72]	@ (10044018 <_update_user_timeout+0x158>)
10043fd0:	7811      	ldrb	r1, [r2, #0]
10043fd2:	7818      	ldrb	r0, [r3, #0]
10043fd4:	701e      	strb	r6, [r3, #0]
10043fd6:	4301      	orrs	r1, r0
10043fd8:	7011      	strb	r1, [r2, #0]
10043fda:	9b07      	ldr	r3, [sp, #28]
10043fdc:	f383 8810 	msr	PRIMASK, r3
10043fe0:	9b04      	ldr	r3, [sp, #16]
10043fe2:	781b      	ldrb	r3, [r3, #0]
10043fe4:	2b00      	cmp	r3, #0
10043fe6:	d108      	bne.n	10043ffa <_update_user_timeout+0x13a>
10043fe8:	0020      	movs	r0, r4
10043fea:	b00b      	add	sp, #44	@ 0x2c
10043fec:	bdf0      	pop	{r4, r5, r6, r7, pc}
10043fee:	2301      	movs	r3, #1
10043ff0:	9a04      	ldr	r2, [sp, #16]
10043ff2:	7013      	strb	r3, [r2, #0]
10043ff4:	e7f1      	b.n	10043fda <_update_user_timeout+0x11a>
10043ff6:	6924      	ldr	r4, [r4, #16]
10043ff8:	e769      	b.n	10043ece <_update_user_timeout+0xe>
10043ffa:	9c05      	ldr	r4, [sp, #20]
10043ffc:	e7f4      	b.n	10043fe8 <_update_user_timeout+0x128>
10043ffe:	46c0      	nop			@ (mov r8, r8)
10044000:	200008d0 	.word	0x200008d0
10044004:	20000965 	.word	0x20000965
10044008:	00000326 	.word	0x00000326
1004400c:	60001800 	.word	0x60001800
10044010:	200000c0 	.word	0x200000c0
10044014:	20000932 	.word	0x20000932
10044018:	20000931 	.word	0x20000931

1004401c <_start_timer>:
1004401c:	b5f0      	push	{r4, r5, r6, r7, lr}
1004401e:	b085      	sub	sp, #20
10044020:	a902      	add	r1, sp, #8
10044022:	1dcd      	adds	r5, r1, #7
10044024:	2100      	movs	r1, #0
10044026:	2401      	movs	r4, #1
10044028:	7029      	strb	r1, [r5, #0]
1004402a:	9201      	str	r2, [sp, #4]
1004402c:	7b06      	ldrb	r6, [r0, #12]
1004402e:	0021      	movs	r1, r4
10044030:	2e00      	cmp	r6, #0
10044032:	d11e      	bne.n	10044072 <_start_timer+0x56>
10044034:	491d      	ldr	r1, [pc, #116]	@ (100440ac <_start_timer+0x90>)
10044036:	7304      	strb	r4, [r0, #12]
10044038:	680f      	ldr	r7, [r1, #0]
1004403a:	4c1d      	ldr	r4, [pc, #116]	@ (100440b0 <_start_timer+0x94>)
1004403c:	0039      	movs	r1, r7
1004403e:	6002      	str	r2, [r0, #0]
10044040:	6043      	str	r3, [r0, #4]
10044042:	2900      	cmp	r1, #0
10044044:	d008      	beq.n	10044058 <_start_timer+0x3c>
10044046:	684a      	ldr	r2, [r1, #4]
10044048:	429a      	cmp	r2, r3
1004404a:	d315      	bcc.n	10044078 <_start_timer+0x5c>
1004404c:	d104      	bne.n	10044058 <_start_timer+0x3c>
1004404e:	680a      	ldr	r2, [r1, #0]
10044050:	4694      	mov	ip, r2
10044052:	9a01      	ldr	r2, [sp, #4]
10044054:	4594      	cmp	ip, r2
10044056:	d30f      	bcc.n	10044078 <_start_timer+0x5c>
10044058:	6101      	str	r1, [r0, #16]
1004405a:	2e00      	cmp	r6, #0
1004405c:	d10f      	bne.n	1004407e <_start_timer+0x62>
1004405e:	0029      	movs	r1, r5
10044060:	f7ff ff2e 	bl	10043ec0 <_update_user_timeout>
10044064:	0023      	movs	r3, r4
10044066:	338c      	adds	r3, #140	@ 0x8c
10044068:	6018      	str	r0, [r3, #0]
1004406a:	782b      	ldrb	r3, [r5, #0]
1004406c:	2b00      	cmp	r3, #0
1004406e:	d10a      	bne.n	10044086 <_start_timer+0x6a>
10044070:	7829      	ldrb	r1, [r5, #0]
10044072:	0008      	movs	r0, r1
10044074:	b005      	add	sp, #20
10044076:	bdf0      	pop	{r4, r5, r6, r7, pc}
10044078:	000e      	movs	r6, r1
1004407a:	6909      	ldr	r1, [r1, #16]
1004407c:	e7e1      	b.n	10044042 <_start_timer+0x26>
1004407e:	6130      	str	r0, [r6, #16]
10044080:	4287      	cmp	r7, r0
10044082:	d1f5      	bne.n	10044070 <_start_timer+0x54>
10044084:	e7eb      	b.n	1004405e <_start_timer+0x42>
10044086:	f3ef 8110 	mrs	r1, PRIMASK
1004408a:	b672      	cpsid	i
1004408c:	0023      	movs	r3, r4
1004408e:	0020      	movs	r0, r4
10044090:	3391      	adds	r3, #145	@ 0x91
10044092:	781b      	ldrb	r3, [r3, #0]
10044094:	3092      	adds	r0, #146	@ 0x92
10044096:	7800      	ldrb	r0, [r0, #0]
10044098:	1c5a      	adds	r2, r3, #1
1004409a:	4282      	cmp	r2, r0
1004409c:	d000      	beq.n	100440a0 <_start_timer+0x84>
1004409e:	b2d3      	uxtb	r3, r2
100440a0:	3491      	adds	r4, #145	@ 0x91
100440a2:	7023      	strb	r3, [r4, #0]
100440a4:	f381 8810 	msr	PRIMASK, r1
100440a8:	e7e2      	b.n	10044070 <_start_timer+0x54>
100440aa:	46c0      	nop			@ (mov r8, r8)
100440ac:	2000095c 	.word	0x2000095c
100440b0:	200008d0 	.word	0x200008d0

100440b4 <HAL_RADIO_TIMER_Init>:
100440b4:	b5f8      	push	{r3, r4, r5, r6, r7, lr}
100440b6:	2301      	movs	r3, #1
100440b8:	4d57      	ldr	r5, [pc, #348]	@ (10044218 <HAL_RADIO_TIMER_Init+0x164>)
100440ba:	0006      	movs	r6, r0
100440bc:	6cea      	ldr	r2, [r5, #76]	@ 0x4c
100440be:	431a      	orrs	r2, r3
100440c0:	64ea      	str	r2, [r5, #76]	@ 0x4c
100440c2:	6caa      	ldr	r2, [r5, #72]	@ 0x48
100440c4:	431a      	orrs	r2, r3
100440c6:	64aa      	str	r2, [r5, #72]	@ 0x48
100440c8:	2180      	movs	r1, #128	@ 0x80
100440ca:	4a54      	ldr	r2, [pc, #336]	@ (1004421c <HAL_RADIO_TIMER_Init+0x168>)
100440cc:	0409      	lsls	r1, r1, #16
100440ce:	6011      	str	r1, [r2, #0]
100440d0:	2180      	movs	r1, #128	@ 0x80
100440d2:	0349      	lsls	r1, r1, #13
100440d4:	6011      	str	r1, [r2, #0]
100440d6:	6c69      	ldr	r1, [r5, #68]	@ 0x44
100440d8:	4319      	orrs	r1, r3
100440da:	6469      	str	r1, [r5, #68]	@ 0x44
100440dc:	6c29      	ldr	r1, [r5, #64]	@ 0x40
100440de:	430b      	orrs	r3, r1
100440e0:	642b      	str	r3, [r5, #64]	@ 0x40
100440e2:	2380      	movs	r3, #128	@ 0x80
100440e4:	045b      	lsls	r3, r3, #17
100440e6:	6013      	str	r3, [r2, #0]
100440e8:	8802      	ldrh	r2, [r0, #0]
100440ea:	4c4d      	ldr	r4, [pc, #308]	@ (10044220 <HAL_RADIO_TIMER_Init+0x16c>)
100440ec:	494d      	ldr	r1, [pc, #308]	@ (10044224 <HAL_RADIO_TIMER_Init+0x170>)
100440ee:	1c13      	adds	r3, r2, #0
100440f0:	2ac7      	cmp	r2, #199	@ 0xc7
100440f2:	d800      	bhi.n	100440f6 <HAL_RADIO_TIMER_Init+0x42>
100440f4:	23c8      	movs	r3, #200	@ 0xc8
100440f6:	6877      	ldr	r7, [r6, #4]
100440f8:	b29b      	uxth	r3, r3
100440fa:	600b      	str	r3, [r1, #0]
100440fc:	003b      	movs	r3, r7
100440fe:	1e5a      	subs	r2, r3, #1
10044100:	4193      	sbcs	r3, r2
10044102:	7023      	strb	r3, [r4, #0]
10044104:	2f00      	cmp	r7, #0
10044106:	d102      	bne.n	1004410e <HAL_RADIO_TIMER_Init+0x5a>
10044108:	78b3      	ldrb	r3, [r6, #2]
1004410a:	2b00      	cmp	r3, #0
1004410c:	d01a      	beq.n	10044144 <HAL_RADIO_TIMER_Init+0x90>
1004410e:	2201      	movs	r2, #1
10044110:	4b45      	ldr	r3, [pc, #276]	@ (10044228 <HAL_RADIO_TIMER_Init+0x174>)
10044112:	6919      	ldr	r1, [r3, #16]
10044114:	4211      	tst	r1, r2
10044116:	d0fc      	beq.n	10044112 <HAL_RADIO_TIMER_Init+0x5e>
10044118:	2117      	movs	r1, #23
1004411a:	6059      	str	r1, [r3, #4]
1004411c:	6919      	ldr	r1, [r3, #16]
1004411e:	430a      	orrs	r2, r1
10044120:	611a      	str	r2, [r3, #16]
10044122:	2200      	movs	r2, #0
10044124:	609a      	str	r2, [r3, #8]
10044126:	3201      	adds	r2, #1
10044128:	6919      	ldr	r1, [r3, #16]
1004412a:	4211      	tst	r1, r2
1004412c:	d0fc      	beq.n	10044128 <HAL_RADIO_TIMER_Init+0x74>
1004412e:	f7ff fc43 	bl	100439b8 <_get_calibration_data.constprop.0>
10044132:	69e3      	ldr	r3, [r4, #28]
10044134:	6223      	str	r3, [r4, #32]
10044136:	2f00      	cmp	r7, #0
10044138:	d10f      	bne.n	1004415a <HAL_RADIO_TIMER_Init+0xa6>
1004413a:	20a0      	movs	r0, #160	@ 0xa0
1004413c:	05c0      	lsls	r0, r0, #23
1004413e:	f7ff fd33 	bl	10043ba8 <HAL_RADIO_TIMER_MachineTimeToSysTime>
10044142:	e016      	b.n	10044172 <HAL_RADIO_TIMER_Init+0xbe>
10044144:	23c8      	movs	r3, #200	@ 0xc8
10044146:	035b      	lsls	r3, r3, #13
10044148:	6223      	str	r3, [r4, #32]
1004414a:	61e3      	str	r3, [r4, #28]
1004414c:	4b37      	ldr	r3, [pc, #220]	@ (1004422c <HAL_RADIO_TIMER_Init+0x178>)
1004414e:	61a3      	str	r3, [r4, #24]
10044150:	4b37      	ldr	r3, [pc, #220]	@ (10044230 <HAL_RADIO_TIMER_Init+0x17c>)
10044152:	6123      	str	r3, [r4, #16]
10044154:	4b37      	ldr	r3, [pc, #220]	@ (10044234 <HAL_RADIO_TIMER_Init+0x180>)
10044156:	6163      	str	r3, [r4, #20]
10044158:	e7ef      	b.n	1004413a <HAL_RADIO_TIMER_Init+0x86>
1004415a:	0338      	lsls	r0, r7, #12
1004415c:	210a      	movs	r1, #10
1004415e:	f7fb ffd1 	bl	10040104 <__udivsi3>
10044162:	0007      	movs	r7, r0
10044164:	6060      	str	r0, [r4, #4]
10044166:	4834      	ldr	r0, [pc, #208]	@ (10044238 <HAL_RADIO_TIMER_Init+0x184>)
10044168:	f7ff fd1e 	bl	10043ba8 <HAL_RADIO_TIMER_MachineTimeToSysTime>
1004416c:	4287      	cmp	r7, r0
1004416e:	d250      	bcs.n	10044212 <HAL_RADIO_TIMER_Init+0x15e>
10044170:	6860      	ldr	r0, [r4, #4]
10044172:	2300      	movs	r3, #0
10044174:	6060      	str	r0, [r4, #4]
10044176:	8830      	ldrh	r0, [r6, #0]
10044178:	4a30      	ldr	r2, [pc, #192]	@ (1004423c <HAL_RADIO_TIMER_Init+0x188>)
1004417a:	69a1      	ldr	r1, [r4, #24]
1004417c:	7223      	strb	r3, [r4, #8]
1004417e:	66a0      	str	r0, [r4, #104]	@ 0x68
10044180:	f7fb ff9e 	bl	100400c0 <blue_unit_conversion>
10044184:	2810      	cmp	r0, #16
10044186:	da00      	bge.n	1004418a <HAL_RADIO_TIMER_Init+0xd6>
10044188:	2010      	movs	r0, #16
1004418a:	2380      	movs	r3, #128	@ 0x80
1004418c:	015b      	lsls	r3, r3, #5
1004418e:	4298      	cmp	r0, r3
10044190:	db00      	blt.n	10044194 <HAL_RADIO_TIMER_Init+0xe0>
10044192:	482b      	ldr	r0, [pc, #172]	@ (10044240 <HAL_RADIO_TIMER_Init+0x18c>)
10044194:	0022      	movs	r2, r4
10044196:	2100      	movs	r1, #0
10044198:	1100      	asrs	r0, r0, #4
1004419a:	3284      	adds	r2, #132	@ 0x84
1004419c:	60a8      	str	r0, [r5, #8]
1004419e:	7011      	strb	r1, [r2, #0]
100441a0:	692a      	ldr	r2, [r5, #16]
100441a2:	1d23      	adds	r3, r4, #4
100441a4:	67da      	str	r2, [r3, #124]	@ 0x7c
100441a6:	0023      	movs	r3, r4
100441a8:	2600      	movs	r6, #0
100441aa:	2700      	movs	r7, #0
100441ac:	3334      	adds	r3, #52	@ 0x34
100441ae:	000d      	movs	r5, r1
100441b0:	7019      	strb	r1, [r3, #0]
100441b2:	4a22      	ldr	r2, [pc, #136]	@ (1004423c <HAL_RADIO_TIMER_Init+0x188>)
100441b4:	69a1      	ldr	r1, [r4, #24]
100441b6:	6860      	ldr	r0, [r4, #4]
100441b8:	6726      	str	r6, [r4, #112]	@ 0x70
100441ba:	6767      	str	r7, [r4, #116]	@ 0x74
100441bc:	67a6      	str	r6, [r4, #120]	@ 0x78
100441be:	67e7      	str	r7, [r4, #124]	@ 0x7c
100441c0:	62a6      	str	r6, [r4, #40]	@ 0x28
100441c2:	62e7      	str	r7, [r4, #44]	@ 0x2c
100441c4:	f7fb ff7c 	bl	100400c0 <blue_unit_conversion>
100441c8:	0023      	movs	r3, r4
100441ca:	7822      	ldrb	r2, [r4, #0]
100441cc:	3394      	adds	r3, #148	@ 0x94
100441ce:	701a      	strb	r2, [r3, #0]
100441d0:	0023      	movs	r3, r4
100441d2:	338c      	adds	r3, #140	@ 0x8c
100441d4:	601d      	str	r5, [r3, #0]
100441d6:	0023      	movs	r3, r4
100441d8:	002a      	movs	r2, r5
100441da:	3390      	adds	r3, #144	@ 0x90
100441dc:	3501      	adds	r5, #1
100441de:	601d      	str	r5, [r3, #0]
100441e0:	0023      	movs	r3, r4
100441e2:	3361      	adds	r3, #97	@ 0x61
100441e4:	701a      	strb	r2, [r3, #0]
100441e6:	0023      	movs	r3, r4
100441e8:	3362      	adds	r3, #98	@ 0x62
100441ea:	801a      	strh	r2, [r3, #0]
100441ec:	4b15      	ldr	r3, [pc, #84]	@ (10044244 <HAL_RADIO_TIMER_Init+0x190>)
100441ee:	65a6      	str	r6, [r4, #88]	@ 0x58
100441f0:	65e7      	str	r7, [r4, #92]	@ 0x5c
100441f2:	64a3      	str	r3, [r4, #72]	@ 0x48
100441f4:	6562      	str	r2, [r4, #84]	@ 0x54
100441f6:	6320      	str	r0, [r4, #48]	@ 0x30
100441f8:	f7ff fce2 	bl	10043bc0 <HAL_RADIO_TIMER_GetCurrentSysTime>
100441fc:	2300      	movs	r3, #0
100441fe:	6862      	ldr	r2, [r4, #4]
10044200:	1812      	adds	r2, r2, r0
10044202:	414b      	adcs	r3, r1
10044204:	4810      	ldr	r0, [pc, #64]	@ (10044248 <HAL_RADIO_TIMER_Init+0x194>)
10044206:	f7ff ff09 	bl	1004401c <_start_timer>
1004420a:	0028      	movs	r0, r5
1004420c:	f7ff fc32 	bl	10043a74 <_configureTxRxDelay.constprop.0>
10044210:	bdf8      	pop	{r3, r4, r5, r6, r7, pc}
10044212:	4809      	ldr	r0, [pc, #36]	@ (10044238 <HAL_RADIO_TIMER_Init+0x184>)
10044214:	e793      	b.n	1004413e <HAL_RADIO_TIMER_Init+0x8a>
10044216:	46c0      	nop			@ (mov r8, r8)
10044218:	60001800 	.word	0x60001800
1004421c:	e000e100 	.word	0xe000e100
10044220:	200008d0 	.word	0x200008d0
10044224:	20000968 	.word	0x20000968
10044228:	60001000 	.word	0x60001000
1004422c:	0028f5c2 	.word	0x0028f5c2
10044230:	00005b8d 	.word	0x00005b8d
10044234:	0165ebec 	.word	0x0165ebec
10044238:	ffffefff 	.word	0xffffefff
1004423c:	00000326 	.word	0x00000326
10044240:	00000fff 	.word	0x00000fff
10044244:	10043995 	.word	0x10043995
10044248:	20000910 	.word	0x20000910

1004424c <_check_host_activity>:
1004424c:	b573      	push	{r0, r1, r4, r5, r6, lr}
1004424e:	466b      	mov	r3, sp
10044250:	4e0b      	ldr	r6, [pc, #44]	@ (10044280 <_check_host_activity+0x34>)
10044252:	1ddd      	adds	r5, r3, #7
10044254:	0029      	movs	r1, r5
10044256:	6830      	ldr	r0, [r6, #0]
10044258:	4c0a      	ldr	r4, [pc, #40]	@ (10044284 <_check_host_activity+0x38>)
1004425a:	f7ff fe31 	bl	10043ec0 <_update_user_timeout>
1004425e:	782b      	ldrb	r3, [r5, #0]
10044260:	6030      	str	r0, [r6, #0]
10044262:	2b01      	cmp	r3, #1
10044264:	d10b      	bne.n	1004427e <_check_host_activity+0x32>
10044266:	0023      	movs	r3, r4
10044268:	0021      	movs	r1, r4
1004426a:	3391      	adds	r3, #145	@ 0x91
1004426c:	781b      	ldrb	r3, [r3, #0]
1004426e:	3192      	adds	r1, #146	@ 0x92
10044270:	7809      	ldrb	r1, [r1, #0]
10044272:	1c5a      	adds	r2, r3, #1
10044274:	428a      	cmp	r2, r1
10044276:	d000      	beq.n	1004427a <_check_host_activity+0x2e>
10044278:	b2d3      	uxtb	r3, r2
1004427a:	3491      	adds	r4, #145	@ 0x91
1004427c:	7023      	strb	r3, [r4, #0]
1004427e:	bd73      	pop	{r0, r1, r4, r5, r6, pc}
10044280:	2000095c 	.word	0x2000095c
10044284:	200008d0 	.word	0x200008d0

10044288 <HAL_RADIO_TIMER_RadioTimerIsr>:
10044288:	21c0      	movs	r1, #192	@ 0xc0
1004428a:	2203      	movs	r2, #3
1004428c:	05c9      	lsls	r1, r1, #23
1004428e:	68cb      	ldr	r3, [r1, #12]
10044290:	b510      	push	{r4, lr}
10044292:	4013      	ands	r3, r2
10044294:	2b02      	cmp	r3, #2
10044296:	d005      	beq.n	100442a4 <HAL_RADIO_TIMER_RadioTimerIsr+0x1c>
10044298:	68cb      	ldr	r3, [r1, #12]
1004429a:	4013      	ands	r3, r2
1004429c:	4293      	cmp	r3, r2
1004429e:	d001      	beq.n	100442a4 <HAL_RADIO_TIMER_RadioTimerIsr+0x1c>
100442a0:	f7ff ffd4 	bl	1004424c <_check_host_activity>
100442a4:	bd10      	pop	{r4, pc}
	...

100442a8 <HAL_RADIO_TIMER_StopVirtualTimer>:
100442a8:	b537      	push	{r0, r1, r2, r4, r5, lr}
100442aa:	4a1b      	ldr	r2, [pc, #108]	@ (10044318 <HAL_RADIO_TIMER_StopVirtualTimer+0x70>)
100442ac:	0003      	movs	r3, r0
100442ae:	6812      	ldr	r2, [r2, #0]
100442b0:	2500      	movs	r5, #0
100442b2:	0011      	movs	r1, r2
100442b4:	4c19      	ldr	r4, [pc, #100]	@ (1004431c <HAL_RADIO_TIMER_StopVirtualTimer+0x74>)
100442b6:	2900      	cmp	r1, #0
100442b8:	d005      	beq.n	100442c6 <HAL_RADIO_TIMER_StopVirtualTimer+0x1e>
100442ba:	428b      	cmp	r3, r1
100442bc:	d125      	bne.n	1004430a <HAL_RADIO_TIMER_StopVirtualTimer+0x62>
100442be:	6918      	ldr	r0, [r3, #16]
100442c0:	429a      	cmp	r2, r3
100442c2:	d001      	beq.n	100442c8 <HAL_RADIO_TIMER_StopVirtualTimer+0x20>
100442c4:	6128      	str	r0, [r5, #16]
100442c6:	0010      	movs	r0, r2
100442c8:	2100      	movs	r1, #0
100442ca:	466d      	mov	r5, sp
100442cc:	7319      	strb	r1, [r3, #12]
100442ce:	71e9      	strb	r1, [r5, #7]
100442d0:	4282      	cmp	r2, r0
100442d2:	d01d      	beq.n	10044310 <HAL_RADIO_TIMER_StopVirtualTimer+0x68>
100442d4:	1de9      	adds	r1, r5, #7
100442d6:	f7ff fdf3 	bl	10043ec0 <_update_user_timeout>
100442da:	0023      	movs	r3, r4
100442dc:	338c      	adds	r3, #140	@ 0x8c
100442de:	6018      	str	r0, [r3, #0]
100442e0:	79eb      	ldrb	r3, [r5, #7]
100442e2:	2b00      	cmp	r3, #0
100442e4:	d010      	beq.n	10044308 <HAL_RADIO_TIMER_StopVirtualTimer+0x60>
100442e6:	f3ef 8110 	mrs	r1, PRIMASK
100442ea:	b672      	cpsid	i
100442ec:	0023      	movs	r3, r4
100442ee:	0020      	movs	r0, r4
100442f0:	3391      	adds	r3, #145	@ 0x91
100442f2:	781b      	ldrb	r3, [r3, #0]
100442f4:	3092      	adds	r0, #146	@ 0x92
100442f6:	7800      	ldrb	r0, [r0, #0]
100442f8:	1c5a      	adds	r2, r3, #1
100442fa:	4282      	cmp	r2, r0
100442fc:	d000      	beq.n	10044300 <HAL_RADIO_TIMER_StopVirtualTimer+0x58>
100442fe:	b2d3      	uxtb	r3, r2
10044300:	3491      	adds	r4, #145	@ 0x91
10044302:	7023      	strb	r3, [r4, #0]
10044304:	f381 8810 	msr	PRIMASK, r1
10044308:	bd37      	pop	{r0, r1, r2, r4, r5, pc}
1004430a:	000d      	movs	r5, r1
1004430c:	6909      	ldr	r1, [r1, #16]
1004430e:	e7d2      	b.n	100442b6 <HAL_RADIO_TIMER_StopVirtualTimer+0xe>
10044310:	348c      	adds	r4, #140	@ 0x8c
10044312:	6022      	str	r2, [r4, #0]
10044314:	e7f8      	b.n	10044308 <HAL_RADIO_TIMER_StopVirtualTimer+0x60>
10044316:	46c0      	nop			@ (mov r8, r8)
10044318:	2000095c 	.word	0x2000095c
1004431c:	200008d0 	.word	0x200008d0

10044320 <HAL_RADIO_TIMER_Tick>:
10044320:	2300      	movs	r3, #0
10044322:	b5f0      	push	{r4, r5, r6, r7, lr}
10044324:	b089      	sub	sp, #36	@ 0x24
10044326:	aa06      	add	r2, sp, #24
10044328:	71d3      	strb	r3, [r2, #7]
1004432a:	f3ef 8610 	mrs	r6, PRIMASK
1004432e:	b672      	cpsid	i
10044330:	4bae      	ldr	r3, [pc, #696]	@ (100445ec <HAL_RADIO_TIMER_Tick+0x2cc>)
10044332:	4caf      	ldr	r4, [pc, #700]	@ (100445f0 <HAL_RADIO_TIMER_Tick+0x2d0>)
10044334:	781b      	ldrb	r3, [r3, #0]
10044336:	2b00      	cmp	r3, #0
10044338:	d00c      	beq.n	10044354 <HAL_RADIO_TIMER_Tick+0x34>
1004433a:	6de5      	ldr	r5, [r4, #92]	@ 0x5c
1004433c:	6da7      	ldr	r7, [r4, #88]	@ 0x58
1004433e:	f7ff fc3f 	bl	10043bc0 <HAL_RADIO_TIMER_GetCurrentSysTime>
10044342:	42a9      	cmp	r1, r5
10044344:	d802      	bhi.n	1004434c <HAL_RADIO_TIMER_Tick+0x2c>
10044346:	d105      	bne.n	10044354 <HAL_RADIO_TIMER_Tick+0x34>
10044348:	42b8      	cmp	r0, r7
1004434a:	d903      	bls.n	10044354 <HAL_RADIO_TIMER_Tick+0x34>
1004434c:	0023      	movs	r3, r4
1004434e:	2200      	movs	r2, #0
10044350:	3361      	adds	r3, #97	@ 0x61
10044352:	701a      	strb	r2, [r3, #0]
10044354:	f386 8810 	msr	PRIMASK, r6
10044358:	0023      	movs	r3, r4
1004435a:	3391      	adds	r3, #145	@ 0x91
1004435c:	781b      	ldrb	r3, [r3, #0]
1004435e:	9303      	str	r3, [sp, #12]
10044360:	0023      	movs	r3, r4
10044362:	3392      	adds	r3, #146	@ 0x92
10044364:	781b      	ldrb	r3, [r3, #0]
10044366:	9304      	str	r3, [sp, #16]
10044368:	9a04      	ldr	r2, [sp, #16]
1004436a:	9b03      	ldr	r3, [sp, #12]
1004436c:	4293      	cmp	r3, r2
1004436e:	d151      	bne.n	10044414 <HAL_RADIO_TIMER_Tick+0xf4>
10044370:	7a23      	ldrb	r3, [r4, #8]
10044372:	2b00      	cmp	r3, #0
10044374:	d100      	bne.n	10044378 <HAL_RADIO_TIMER_Tick+0x58>
10044376:	e120      	b.n	100445ba <HAL_RADIO_TIMER_Tick+0x29a>
10044378:	4b9e      	ldr	r3, [pc, #632]	@ (100445f4 <HAL_RADIO_TIMER_Tick+0x2d4>)
1004437a:	691b      	ldr	r3, [r3, #16]
1004437c:	07db      	lsls	r3, r3, #31
1004437e:	d547      	bpl.n	10044410 <HAL_RADIO_TIMER_Tick+0xf0>
10044380:	2300      	movs	r3, #0
10044382:	7223      	strb	r3, [r4, #8]
10044384:	0023      	movs	r3, r4
10044386:	3394      	adds	r3, #148	@ 0x94
10044388:	781a      	ldrb	r2, [r3, #0]
1004438a:	2a00      	cmp	r2, #0
1004438c:	d000      	beq.n	10044390 <HAL_RADIO_TIMER_Tick+0x70>
1004438e:	e09c      	b.n	100444ca <HAL_RADIO_TIMER_Tick+0x1aa>
10044390:	0023      	movs	r3, r4
10044392:	3393      	adds	r3, #147	@ 0x93
10044394:	7819      	ldrb	r1, [r3, #0]
10044396:	2900      	cmp	r1, #0
10044398:	d100      	bne.n	1004439c <HAL_RADIO_TIMER_Tick+0x7c>
1004439a:	e096      	b.n	100444ca <HAL_RADIO_TIMER_Tick+0x1aa>
1004439c:	701a      	strb	r2, [r3, #0]
1004439e:	4b96      	ldr	r3, [pc, #600]	@ (100445f8 <HAL_RADIO_TIMER_Tick+0x2d8>)
100443a0:	4c93      	ldr	r4, [pc, #588]	@ (100445f0 <HAL_RADIO_TIMER_Tick+0x2d0>)
100443a2:	781a      	ldrb	r2, [r3, #0]
100443a4:	2a00      	cmp	r2, #0
100443a6:	d026      	beq.n	100443f6 <HAL_RADIO_TIMER_Tick+0xd6>
100443a8:	2200      	movs	r2, #0
100443aa:	701a      	strb	r2, [r3, #0]
100443ac:	0023      	movs	r3, r4
100443ae:	0026      	movs	r6, r4
100443b0:	3201      	adds	r2, #1
100443b2:	3362      	adds	r3, #98	@ 0x62
100443b4:	701a      	strb	r2, [r3, #0]
100443b6:	ab06      	add	r3, sp, #24
100443b8:	1ddd      	adds	r5, r3, #7
100443ba:	0028      	movs	r0, r5
100443bc:	368c      	adds	r6, #140	@ 0x8c
100443be:	f7ff fc05 	bl	10043bcc <_check_radio_activity.constprop.0>
100443c2:	0029      	movs	r1, r5
100443c4:	6830      	ldr	r0, [r6, #0]
100443c6:	f7ff fd7b 	bl	10043ec0 <_update_user_timeout>
100443ca:	782b      	ldrb	r3, [r5, #0]
100443cc:	6030      	str	r0, [r6, #0]
100443ce:	2b01      	cmp	r3, #1
100443d0:	d111      	bne.n	100443f6 <HAL_RADIO_TIMER_Tick+0xd6>
100443d2:	f3ef 8110 	mrs	r1, PRIMASK
100443d6:	b672      	cpsid	i
100443d8:	0023      	movs	r3, r4
100443da:	0020      	movs	r0, r4
100443dc:	3391      	adds	r3, #145	@ 0x91
100443de:	781b      	ldrb	r3, [r3, #0]
100443e0:	3092      	adds	r0, #146	@ 0x92
100443e2:	7800      	ldrb	r0, [r0, #0]
100443e4:	1c5a      	adds	r2, r3, #1
100443e6:	4282      	cmp	r2, r0
100443e8:	d000      	beq.n	100443ec <HAL_RADIO_TIMER_Tick+0xcc>
100443ea:	b2d3      	uxtb	r3, r2
100443ec:	0022      	movs	r2, r4
100443ee:	3291      	adds	r2, #145	@ 0x91
100443f0:	7013      	strb	r3, [r2, #0]
100443f2:	f381 8810 	msr	PRIMASK, r1
100443f6:	4d81      	ldr	r5, [pc, #516]	@ (100445fc <HAL_RADIO_TIMER_Tick+0x2dc>)
100443f8:	0028      	movs	r0, r5
100443fa:	f7ff ff55 	bl	100442a8 <HAL_RADIO_TIMER_StopVirtualTimer>
100443fe:	f7ff fbdf 	bl	10043bc0 <HAL_RADIO_TIMER_GetCurrentSysTime>
10044402:	2300      	movs	r3, #0
10044404:	6862      	ldr	r2, [r4, #4]
10044406:	1812      	adds	r2, r2, r0
10044408:	414b      	adcs	r3, r1
1004440a:	0028      	movs	r0, r5
1004440c:	f7ff fe06 	bl	1004401c <_start_timer>
10044410:	b009      	add	sp, #36	@ 0x24
10044412:	bdf0      	pop	{r4, r5, r6, r7, pc}
10044414:	0023      	movs	r3, r4
10044416:	338c      	adds	r3, #140	@ 0x8c
10044418:	681b      	ldr	r3, [r3, #0]
1004441a:	001d      	movs	r5, r3
1004441c:	9300      	str	r3, [sp, #0]
1004441e:	2300      	movs	r3, #0
10044420:	9302      	str	r3, [sp, #8]
10044422:	9305      	str	r3, [sp, #20]
10044424:	2d00      	cmp	r5, #0
10044426:	d013      	beq.n	10044450 <HAL_RADIO_TIMER_Tick+0x130>
10044428:	7b2b      	ldrb	r3, [r5, #12]
1004442a:	2b00      	cmp	r3, #0
1004442c:	d105      	bne.n	1004443a <HAL_RADIO_TIMER_Tick+0x11a>
1004442e:	9b02      	ldr	r3, [sp, #8]
10044430:	9505      	str	r5, [sp, #20]
10044432:	3301      	adds	r3, #1
10044434:	692d      	ldr	r5, [r5, #16]
10044436:	9302      	str	r3, [sp, #8]
10044438:	e7f4      	b.n	10044424 <HAL_RADIO_TIMER_Tick+0x104>
1004443a:	682e      	ldr	r6, [r5, #0]
1004443c:	686f      	ldr	r7, [r5, #4]
1004443e:	f7ff fbbf 	bl	10043bc0 <HAL_RADIO_TIMER_GetCurrentSysTime>
10044442:	1a36      	subs	r6, r6, r0
10044444:	418f      	sbcs	r7, r1
10044446:	2f00      	cmp	r7, #0
10044448:	dc02      	bgt.n	10044450 <HAL_RADIO_TIMER_Tick+0x130>
1004444a:	d1f0      	bne.n	1004442e <HAL_RADIO_TIMER_Tick+0x10e>
1004444c:	2e05      	cmp	r6, #5
1004444e:	d9ee      	bls.n	1004442e <HAL_RADIO_TIMER_Tick+0x10e>
10044450:	2000      	movs	r0, #0
10044452:	9b02      	ldr	r3, [sp, #8]
10044454:	4283      	cmp	r3, r0
10044456:	d003      	beq.n	10044460 <HAL_RADIO_TIMER_Tick+0x140>
10044458:	9b05      	ldr	r3, [sp, #20]
1004445a:	6118      	str	r0, [r3, #16]
1004445c:	9800      	ldr	r0, [sp, #0]
1004445e:	9500      	str	r5, [sp, #0]
10044460:	4b67      	ldr	r3, [pc, #412]	@ (10044600 <HAL_RADIO_TIMER_Tick+0x2e0>)
10044462:	9a00      	ldr	r2, [sp, #0]
10044464:	601a      	str	r2, [r3, #0]
10044466:	2800      	cmp	r0, #0
10044468:	d126      	bne.n	100444b8 <HAL_RADIO_TIMER_Tick+0x198>
1004446a:	0025      	movs	r5, r4
1004446c:	ab06      	add	r3, sp, #24
1004446e:	358c      	adds	r5, #140	@ 0x8c
10044470:	1dd9      	adds	r1, r3, #7
10044472:	6828      	ldr	r0, [r5, #0]
10044474:	f7ff fd24 	bl	10043ec0 <_update_user_timeout>
10044478:	ab06      	add	r3, sp, #24
1004447a:	79db      	ldrb	r3, [r3, #7]
1004447c:	6028      	str	r0, [r5, #0]
1004447e:	2b01      	cmp	r3, #1
10044480:	d111      	bne.n	100444a6 <HAL_RADIO_TIMER_Tick+0x186>
10044482:	f3ef 8110 	mrs	r1, PRIMASK
10044486:	b672      	cpsid	i
10044488:	0023      	movs	r3, r4
1004448a:	0020      	movs	r0, r4
1004448c:	3391      	adds	r3, #145	@ 0x91
1004448e:	781b      	ldrb	r3, [r3, #0]
10044490:	3092      	adds	r0, #146	@ 0x92
10044492:	7800      	ldrb	r0, [r0, #0]
10044494:	1c5a      	adds	r2, r3, #1
10044496:	4282      	cmp	r2, r0
10044498:	d000      	beq.n	1004449c <HAL_RADIO_TIMER_Tick+0x17c>
1004449a:	b2d3      	uxtb	r3, r2
1004449c:	0022      	movs	r2, r4
1004449e:	3291      	adds	r2, #145	@ 0x91
100444a0:	7013      	strb	r3, [r2, #0]
100444a2:	f381 8810 	msr	PRIMASK, r1
100444a6:	0022      	movs	r2, r4
100444a8:	3292      	adds	r2, #146	@ 0x92
100444aa:	7813      	ldrb	r3, [r2, #0]
100444ac:	9903      	ldr	r1, [sp, #12]
100444ae:	18cb      	adds	r3, r1, r3
100444b0:	9904      	ldr	r1, [sp, #16]
100444b2:	1a5b      	subs	r3, r3, r1
100444b4:	7013      	strb	r3, [r2, #0]
100444b6:	e74f      	b.n	10044358 <HAL_RADIO_TIMER_Tick+0x38>
100444b8:	2300      	movs	r3, #0
100444ba:	7303      	strb	r3, [r0, #12]
100444bc:	6883      	ldr	r3, [r0, #8]
100444be:	6905      	ldr	r5, [r0, #16]
100444c0:	2b00      	cmp	r3, #0
100444c2:	d000      	beq.n	100444c6 <HAL_RADIO_TIMER_Tick+0x1a6>
100444c4:	4798      	blx	r3
100444c6:	0028      	movs	r0, r5
100444c8:	e7cd      	b.n	10044466 <HAL_RADIO_TIMER_Tick+0x146>
100444ca:	4e49      	ldr	r6, [pc, #292]	@ (100445f0 <HAL_RADIO_TIMER_Tick+0x2d0>)
100444cc:	4d4d      	ldr	r5, [pc, #308]	@ (10044604 <HAL_RADIO_TIMER_Tick+0x2e4>)
100444ce:	7833      	ldrb	r3, [r6, #0]
100444d0:	2b00      	cmp	r3, #0
100444d2:	d017      	beq.n	10044504 <HAL_RADIO_TIMER_Tick+0x1e4>
100444d4:	f7ff fa70 	bl	100439b8 <_get_calibration_data.constprop.0>
100444d8:	6eb0      	ldr	r0, [r6, #104]	@ 0x68
100444da:	4a4b      	ldr	r2, [pc, #300]	@ (10044608 <HAL_RADIO_TIMER_Tick+0x2e8>)
100444dc:	69b1      	ldr	r1, [r6, #24]
100444de:	b280      	uxth	r0, r0
100444e0:	f7fb fdee 	bl	100400c0 <blue_unit_conversion>
100444e4:	2810      	cmp	r0, #16
100444e6:	da00      	bge.n	100444ea <HAL_RADIO_TIMER_Tick+0x1ca>
100444e8:	2010      	movs	r0, #16
100444ea:	2380      	movs	r3, #128	@ 0x80
100444ec:	015b      	lsls	r3, r3, #5
100444ee:	4298      	cmp	r0, r3
100444f0:	db00      	blt.n	100444f4 <HAL_RADIO_TIMER_Tick+0x1d4>
100444f2:	4846      	ldr	r0, [pc, #280]	@ (1004460c <HAL_RADIO_TIMER_Tick+0x2ec>)
100444f4:	1100      	asrs	r0, r0, #4
100444f6:	60a8      	str	r0, [r5, #8]
100444f8:	2000      	movs	r0, #0
100444fa:	f7ff fabb 	bl	10043a74 <_configureTxRxDelay.constprop.0>
100444fe:	2301      	movs	r3, #1
10044500:	3434      	adds	r4, #52	@ 0x34
10044502:	7023      	strb	r3, [r4, #0]
10044504:	f3ef 8310 	mrs	r3, PRIMASK
10044508:	9302      	str	r3, [sp, #8]
1004450a:	b672      	cpsid	i
1004450c:	4c38      	ldr	r4, [pc, #224]	@ (100445f0 <HAL_RADIO_TIMER_Tick+0x2d0>)
1004450e:	692d      	ldr	r5, [r5, #16]
10044510:	1d26      	adds	r6, r4, #4
10044512:	6a27      	ldr	r7, [r4, #32]
10044514:	6ff0      	ldr	r0, [r6, #124]	@ 0x7c
10044516:	6aa2      	ldr	r2, [r4, #40]	@ 0x28
10044518:	6ae3      	ldr	r3, [r4, #44]	@ 0x2c
1004451a:	0039      	movs	r1, r7
1004451c:	9200      	str	r2, [sp, #0]
1004451e:	9301      	str	r3, [sp, #4]
10044520:	1a28      	subs	r0, r5, r0
10044522:	4a3b      	ldr	r2, [pc, #236]	@ (10044610 <HAL_RADIO_TIMER_Tick+0x2f0>)
10044524:	f7fb fdcc 	bl	100400c0 <blue_unit_conversion>
10044528:	2300      	movs	r3, #0
1004452a:	0002      	movs	r2, r0
1004452c:	9800      	ldr	r0, [sp, #0]
1004452e:	9901      	ldr	r1, [sp, #4]
10044530:	1812      	adds	r2, r2, r0
10044532:	414b      	adcs	r3, r1
10044534:	6722      	str	r2, [r4, #112]	@ 0x70
10044536:	6763      	str	r3, [r4, #116]	@ 0x74
10044538:	7823      	ldrb	r3, [r4, #0]
1004453a:	9300      	str	r3, [sp, #0]
1004453c:	2b00      	cmp	r3, #0
1004453e:	d112      	bne.n	10044566 <HAL_RADIO_TIMER_Tick+0x246>
10044540:	6ff3      	ldr	r3, [r6, #124]	@ 0x7c
10044542:	6b22      	ldr	r2, [r4, #48]	@ 0x30
10044544:	1aeb      	subs	r3, r5, r3
10044546:	4293      	cmp	r3, r2
10044548:	d20d      	bcs.n	10044566 <HAL_RADIO_TIMER_Tick+0x246>
1004454a:	2001      	movs	r0, #1
1004454c:	0039      	movs	r1, r7
1004454e:	4a30      	ldr	r2, [pc, #192]	@ (10044610 <HAL_RADIO_TIMER_Tick+0x2f0>)
10044550:	4240      	negs	r0, r0
10044552:	f7fb fdb5 	bl	100400c0 <blue_unit_conversion>
10044556:	6f22      	ldr	r2, [r4, #112]	@ 0x70
10044558:	6f63      	ldr	r3, [r4, #116]	@ 0x74
1004455a:	0006      	movs	r6, r0
1004455c:	9f00      	ldr	r7, [sp, #0]
1004455e:	1992      	adds	r2, r2, r6
10044560:	417b      	adcs	r3, r7
10044562:	6722      	str	r2, [r4, #112]	@ 0x70
10044564:	6763      	str	r3, [r4, #116]	@ 0x74
10044566:	1d23      	adds	r3, r4, #4
10044568:	67dd      	str	r5, [r3, #124]	@ 0x7c
1004456a:	6f22      	ldr	r2, [r4, #112]	@ 0x70
1004456c:	6f63      	ldr	r3, [r4, #116]	@ 0x74
1004456e:	62a2      	str	r2, [r4, #40]	@ 0x28
10044570:	62e3      	str	r3, [r4, #44]	@ 0x2c
10044572:	69e3      	ldr	r3, [r4, #28]
10044574:	6223      	str	r3, [r4, #32]
10044576:	9b02      	ldr	r3, [sp, #8]
10044578:	f383 8810 	msr	PRIMASK, r3
1004457c:	0026      	movs	r6, r4
1004457e:	ab06      	add	r3, sp, #24
10044580:	1ddd      	adds	r5, r3, #7
10044582:	368c      	adds	r6, #140	@ 0x8c
10044584:	0029      	movs	r1, r5
10044586:	6830      	ldr	r0, [r6, #0]
10044588:	f7ff fc9a 	bl	10043ec0 <_update_user_timeout>
1004458c:	782b      	ldrb	r3, [r5, #0]
1004458e:	6030      	str	r0, [r6, #0]
10044590:	2b01      	cmp	r3, #1
10044592:	d000      	beq.n	10044596 <HAL_RADIO_TIMER_Tick+0x276>
10044594:	e703      	b.n	1004439e <HAL_RADIO_TIMER_Tick+0x7e>
10044596:	f3ef 8110 	mrs	r1, PRIMASK
1004459a:	b672      	cpsid	i
1004459c:	0023      	movs	r3, r4
1004459e:	0020      	movs	r0, r4
100445a0:	3391      	adds	r3, #145	@ 0x91
100445a2:	781b      	ldrb	r3, [r3, #0]
100445a4:	3092      	adds	r0, #146	@ 0x92
100445a6:	7800      	ldrb	r0, [r0, #0]
100445a8:	1c5a      	adds	r2, r3, #1
100445aa:	4282      	cmp	r2, r0
100445ac:	d000      	beq.n	100445b0 <HAL_RADIO_TIMER_Tick+0x290>
100445ae:	b2d3      	uxtb	r3, r2
100445b0:	3491      	adds	r4, #145	@ 0x91
100445b2:	7023      	strb	r3, [r4, #0]
100445b4:	f381 8810 	msr	PRIMASK, r1
100445b8:	e6f1      	b.n	1004439e <HAL_RADIO_TIMER_Tick+0x7e>
100445ba:	7823      	ldrb	r3, [r4, #0]
100445bc:	2b00      	cmp	r3, #0
100445be:	d100      	bne.n	100445c2 <HAL_RADIO_TIMER_Tick+0x2a2>
100445c0:	e726      	b.n	10044410 <HAL_RADIO_TIMER_Tick+0xf0>
100445c2:	f7ff fafd 	bl	10043bc0 <HAL_RADIO_TIMER_GetCurrentSysTime>
100445c6:	6aa2      	ldr	r2, [r4, #40]	@ 0x28
100445c8:	6ae3      	ldr	r3, [r4, #44]	@ 0x2c
100445ca:	24fa      	movs	r4, #250	@ 0xfa
100445cc:	2500      	movs	r5, #0
100445ce:	0364      	lsls	r4, r4, #13
100445d0:	1912      	adds	r2, r2, r4
100445d2:	416b      	adcs	r3, r5
100445d4:	4299      	cmp	r1, r3
100445d6:	d804      	bhi.n	100445e2 <HAL_RADIO_TIMER_Tick+0x2c2>
100445d8:	d000      	beq.n	100445dc <HAL_RADIO_TIMER_Tick+0x2bc>
100445da:	e719      	b.n	10044410 <HAL_RADIO_TIMER_Tick+0xf0>
100445dc:	4290      	cmp	r0, r2
100445de:	d800      	bhi.n	100445e2 <HAL_RADIO_TIMER_Tick+0x2c2>
100445e0:	e716      	b.n	10044410 <HAL_RADIO_TIMER_Tick+0xf0>
100445e2:	4806      	ldr	r0, [pc, #24]	@ (100445fc <HAL_RADIO_TIMER_Tick+0x2dc>)
100445e4:	f7ff f9d6 	bl	10043994 <_calibration_callback>
100445e8:	e712      	b.n	10044410 <HAL_RADIO_TIMER_Tick+0xf0>
100445ea:	46c0      	nop			@ (mov r8, r8)
100445ec:	20000931 	.word	0x20000931
100445f0:	200008d0 	.word	0x200008d0
100445f4:	60001000 	.word	0x60001000
100445f8:	2000096c 	.word	0x2000096c
100445fc:	20000910 	.word	0x20000910
10044600:	2000095c 	.word	0x2000095c
10044604:	60001800 	.word	0x60001800
10044608:	00000326 	.word	0x00000326
1004460c:	00000fff 	.word	0x00000fff
10044610:	00000635 	.word	0x00000635

10044614 <HAL_RADIO_TIMER_TimeoutCallback>:
10044614:	2300      	movs	r3, #0
10044616:	b513      	push	{r0, r1, r4, lr}
10044618:	490e      	ldr	r1, [pc, #56]	@ (10044654 <HAL_RADIO_TIMER_TimeoutCallback+0x40>)
1004461a:	9301      	str	r3, [sp, #4]
1004461c:	700b      	strb	r3, [r1, #0]
1004461e:	4b0e      	ldr	r3, [pc, #56]	@ (10044658 <HAL_RADIO_TIMER_TimeoutCallback+0x44>)
10044620:	9a01      	ldr	r2, [sp, #4]
10044622:	480e      	ldr	r0, [pc, #56]	@ (1004465c <HAL_RADIO_TIMER_TimeoutCallback+0x48>)
10044624:	6b19      	ldr	r1, [r3, #48]	@ 0x30
10044626:	4a0e      	ldr	r2, [pc, #56]	@ (10044660 <HAL_RADIO_TIMER_TimeoutCallback+0x4c>)
10044628:	4001      	ands	r1, r0
1004462a:	6319      	str	r1, [r3, #48]	@ 0x30
1004462c:	0011      	movs	r1, r2
1004462e:	0014      	movs	r4, r2
10044630:	3191      	adds	r1, #145	@ 0x91
10044632:	7809      	ldrb	r1, [r1, #0]
10044634:	3492      	adds	r4, #146	@ 0x92
10044636:	7824      	ldrb	r4, [r4, #0]
10044638:	1c48      	adds	r0, r1, #1
1004463a:	42a0      	cmp	r0, r4
1004463c:	d000      	beq.n	10044640 <HAL_RADIO_TIMER_TimeoutCallback+0x2c>
1004463e:	b2c1      	uxtb	r1, r0
10044640:	3291      	adds	r2, #145	@ 0x91
10044642:	7011      	strb	r1, [r2, #0]
10044644:	2101      	movs	r1, #1
10044646:	6cda      	ldr	r2, [r3, #76]	@ 0x4c
10044648:	430a      	orrs	r2, r1
1004464a:	64da      	str	r2, [r3, #76]	@ 0x4c
1004464c:	6cdb      	ldr	r3, [r3, #76]	@ 0x4c
1004464e:	400b      	ands	r3, r1
10044650:	9301      	str	r3, [sp, #4]
10044652:	bd13      	pop	{r0, r1, r4, pc}
10044654:	20000965 	.word	0x20000965
10044658:	60001800 	.word	0x60001800
1004465c:	bfffffff 	.word	0xbfffffff
10044660:	200008d0 	.word	0x200008d0

10044664 <HAL_RADIO_TIMER_WakeUpCallback>:
10044664:	b513      	push	{r0, r1, r4, lr}
10044666:	2400      	movs	r4, #0
10044668:	9401      	str	r4, [sp, #4]
1004466a:	9b01      	ldr	r3, [sp, #4]
1004466c:	466b      	mov	r3, sp
1004466e:	1cd8      	adds	r0, r3, #3
10044670:	f7ff faac 	bl	10043bcc <_check_radio_activity.constprop.0>
10044674:	4b07      	ldr	r3, [pc, #28]	@ (10044694 <HAL_RADIO_TIMER_WakeUpCallback+0x30>)
10044676:	781a      	ldrb	r2, [r3, #0]
10044678:	42a2      	cmp	r2, r4
1004467a:	d002      	beq.n	10044682 <HAL_RADIO_TIMER_WakeUpCallback+0x1e>
1004467c:	701c      	strb	r4, [r3, #0]
1004467e:	f7ff ffc9 	bl	10044614 <HAL_RADIO_TIMER_TimeoutCallback>
10044682:	2101      	movs	r1, #1
10044684:	4b04      	ldr	r3, [pc, #16]	@ (10044698 <HAL_RADIO_TIMER_WakeUpCallback+0x34>)
10044686:	6c5a      	ldr	r2, [r3, #68]	@ 0x44
10044688:	430a      	orrs	r2, r1
1004468a:	645a      	str	r2, [r3, #68]	@ 0x44
1004468c:	6c5b      	ldr	r3, [r3, #68]	@ 0x44
1004468e:	400b      	ands	r3, r1
10044690:	9301      	str	r3, [sp, #4]
10044692:	bd13      	pop	{r0, r1, r4, pc}
10044694:	20000965 	.word	0x20000965
10044698:	60001800 	.word	0x60001800

1004469c <HAL_RADIO_TIMER_CpuWakeUpCallback>:
1004469c:	4770      	bx	lr

1004469e <HAL_RADIO_TIMER_TxRxWakeUpCallback>:
1004469e:	4770      	bx	lr

100446a0 <HAL_RADIO_TIMER_CPU_WKUP_IRQHandler>:
100446a0:	b510      	push	{r4, lr}
100446a2:	f7ff ffb7 	bl	10044614 <HAL_RADIO_TIMER_TimeoutCallback>
100446a6:	f7ff fff9 	bl	1004469c <HAL_RADIO_TIMER_CpuWakeUpCallback>
100446aa:	bd10      	pop	{r4, pc}

100446ac <HAL_RADIO_TIMER_TXRX_WKUP_IRQHandler>:
100446ac:	b510      	push	{r4, lr}
100446ae:	f7ff fff6 	bl	1004469e <HAL_RADIO_TIMER_TxRxWakeUpCallback>
100446b2:	f7ff ffd7 	bl	10044664 <HAL_RADIO_TIMER_WakeUpCallback>
100446b6:	bd10      	pop	{r4, pc}

100446b8 <HAL_RADIO_TIMER_ERROR_IRQHandler>:
100446b8:	2300      	movs	r3, #0
100446ba:	b082      	sub	sp, #8
100446bc:	9301      	str	r3, [sp, #4]
100446be:	9b01      	ldr	r3, [sp, #4]
100446c0:	23c0      	movs	r3, #192	@ 0xc0
100446c2:	2201      	movs	r2, #1
100446c4:	05db      	lsls	r3, r3, #23
100446c6:	6f59      	ldr	r1, [r3, #116]	@ 0x74
100446c8:	430a      	orrs	r2, r1
100446ca:	675a      	str	r2, [r3, #116]	@ 0x74
100446cc:	6f5b      	ldr	r3, [r3, #116]	@ 0x74
100446ce:	9301      	str	r3, [sp, #4]
100446d0:	b002      	add	sp, #8
100446d2:	4770      	bx	lr

100446d4 <LL_RCC_HSE_IsReady>:
100446d4:	4b02      	ldr	r3, [pc, #8]	@ (100446e0 <LL_RCC_HSE_IsReady+0xc>)
100446d6:	6818      	ldr	r0, [r3, #0]
100446d8:	0380      	lsls	r0, r0, #14
100446da:	0fc0      	lsrs	r0, r0, #31
100446dc:	4770      	bx	lr
100446de:	46c0      	nop			@ (mov r8, r8)
100446e0:	48400000 	.word	0x48400000

100446e4 <LL_RCC_HSI_Enable>:
100446e4:	2104      	movs	r1, #4
100446e6:	4b04      	ldr	r3, [pc, #16]	@ (100446f8 <LL_RCC_HSI_Enable+0x14>)
100446e8:	689a      	ldr	r2, [r3, #8]
100446ea:	438a      	bics	r2, r1
100446ec:	609a      	str	r2, [r3, #8]
100446ee:	689a      	ldr	r2, [r3, #8]
100446f0:	3902      	subs	r1, #2
100446f2:	438a      	bics	r2, r1
100446f4:	609a      	str	r2, [r3, #8]
100446f6:	4770      	bx	lr
100446f8:	48400000 	.word	0x48400000

100446fc <LL_RCC_HSI_IsReady>:
100446fc:	4b02      	ldr	r3, [pc, #8]	@ (10044708 <LL_RCC_HSI_IsReady+0xc>)
100446fe:	6818      	ldr	r0, [r3, #0]
10044700:	0540      	lsls	r0, r0, #21
10044702:	0fc0      	lsrs	r0, r0, #31
10044704:	4770      	bx	lr
10044706:	46c0      	nop			@ (mov r8, r8)
10044708:	48400000 	.word	0x48400000

1004470c <HAL_RCC_OscConfig>:
1004470c:	b5f8      	push	{r3, r4, r5, r6, r7, lr}
1004470e:	0005      	movs	r5, r0
10044710:	2001      	movs	r0, #1
10044712:	2d00      	cmp	r5, #0
10044714:	d100      	bne.n	10044718 <HAL_RCC_OscConfig+0xc>
10044716:	e094      	b.n	10044842 <HAL_RCC_OscConfig+0x136>
10044718:	682b      	ldr	r3, [r5, #0]
1004471a:	06db      	lsls	r3, r3, #27
1004471c:	d466      	bmi.n	100447ec <HAL_RCC_OscConfig+0xe0>
1004471e:	682b      	ldr	r3, [r5, #0]
10044720:	07db      	lsls	r3, r3, #31
10044722:	d523      	bpl.n	1004476c <HAL_RCC_OscConfig+0x60>
10044724:	4b92      	ldr	r3, [pc, #584]	@ (10044970 <HAL_RCC_OscConfig+0x264>)
10044726:	4993      	ldr	r1, [pc, #588]	@ (10044974 <HAL_RCC_OscConfig+0x268>)
10044728:	6818      	ldr	r0, [r3, #0]
1004472a:	4a93      	ldr	r2, [pc, #588]	@ (10044978 <HAL_RCC_OscConfig+0x26c>)
1004472c:	4008      	ands	r0, r1
1004472e:	2180      	movs	r1, #128	@ 0x80
10044730:	0189      	lsls	r1, r1, #6
10044732:	4301      	orrs	r1, r0
10044734:	6019      	str	r1, [r3, #0]
10044736:	2180      	movs	r1, #128	@ 0x80
10044738:	6818      	ldr	r0, [r3, #0]
1004473a:	4301      	orrs	r1, r0
1004473c:	6019      	str	r1, [r3, #0]
1004473e:	2170      	movs	r1, #112	@ 0x70
10044740:	6818      	ldr	r0, [r3, #0]
10044742:	4388      	bics	r0, r1
10044744:	3940      	subs	r1, #64	@ 0x40
10044746:	4301      	orrs	r1, r0
10044748:	6019      	str	r1, [r3, #0]
1004474a:	2180      	movs	r1, #128	@ 0x80
1004474c:	686b      	ldr	r3, [r5, #4]
1004474e:	0249      	lsls	r1, r1, #9
10044750:	428b      	cmp	r3, r1
10044752:	d000      	beq.n	10044756 <HAL_RCC_OscConfig+0x4a>
10044754:	e076      	b.n	10044844 <HAL_RCC_OscConfig+0x138>
10044756:	6811      	ldr	r1, [r2, #0]
10044758:	430b      	orrs	r3, r1
1004475a:	6013      	str	r3, [r2, #0]
1004475c:	f7fe fbbe 	bl	10042edc <HAL_GetTick>
10044760:	0004      	movs	r4, r0
10044762:	f7ff ffb7 	bl	100446d4 <LL_RCC_HSE_IsReady>
10044766:	2800      	cmp	r0, #0
10044768:	d100      	bne.n	1004476c <HAL_RCC_OscConfig+0x60>
1004476a:	e080      	b.n	1004486e <HAL_RCC_OscConfig+0x162>
1004476c:	2204      	movs	r2, #4
1004476e:	682b      	ldr	r3, [r5, #0]
10044770:	4213      	tst	r3, r2
10044772:	d000      	beq.n	10044776 <HAL_RCC_OscConfig+0x6a>
10044774:	e082      	b.n	1004487c <HAL_RCC_OscConfig+0x170>
10044776:	682b      	ldr	r3, [r5, #0]
10044778:	079b      	lsls	r3, r3, #30
1004477a:	d400      	bmi.n	1004477e <HAL_RCC_OscConfig+0x72>
1004477c:	e0cb      	b.n	10044916 <HAL_RCC_OscConfig+0x20a>
1004477e:	2204      	movs	r2, #4
10044780:	4c7d      	ldr	r4, [pc, #500]	@ (10044978 <HAL_RCC_OscConfig+0x26c>)
10044782:	6823      	ldr	r3, [r4, #0]
10044784:	4393      	bics	r3, r2
10044786:	6023      	str	r3, [r4, #0]
10044788:	6823      	ldr	r3, [r4, #0]
1004478a:	320c      	adds	r2, #12
1004478c:	4393      	bics	r3, r2
1004478e:	6023      	str	r3, [r4, #0]
10044790:	2320      	movs	r3, #32
10044792:	6822      	ldr	r2, [r4, #0]
10044794:	421a      	tst	r2, r3
10044796:	d1fc      	bne.n	10044792 <HAL_RCC_OscConfig+0x86>
10044798:	4a78      	ldr	r2, [pc, #480]	@ (1004497c <HAL_RCC_OscConfig+0x270>)
1004479a:	4879      	ldr	r0, [pc, #484]	@ (10044980 <HAL_RCC_OscConfig+0x274>)
1004479c:	6a91      	ldr	r1, [r2, #40]	@ 0x28
1004479e:	4001      	ands	r1, r0
100447a0:	6291      	str	r1, [r2, #40]	@ 0x28
100447a2:	6ad1      	ldr	r1, [r2, #44]	@ 0x2c
100447a4:	4001      	ands	r1, r0
100447a6:	62d1      	str	r1, [r2, #44]	@ 0x2c
100447a8:	68a1      	ldr	r1, [r4, #8]
100447aa:	4a76      	ldr	r2, [pc, #472]	@ (10044984 <HAL_RCC_OscConfig+0x278>)
100447ac:	4011      	ands	r1, r2
100447ae:	2280      	movs	r2, #128	@ 0x80
100447b0:	0212      	lsls	r2, r2, #8
100447b2:	430a      	orrs	r2, r1
100447b4:	2160      	movs	r1, #96	@ 0x60
100447b6:	60a2      	str	r2, [r4, #8]
100447b8:	68e2      	ldr	r2, [r4, #12]
100447ba:	438a      	bics	r2, r1
100447bc:	4313      	orrs	r3, r2
100447be:	60e3      	str	r3, [r4, #12]
100447c0:	68eb      	ldr	r3, [r5, #12]
100447c2:	6822      	ldr	r2, [r4, #0]
100447c4:	2b10      	cmp	r3, #16
100447c6:	d000      	beq.n	100447ca <HAL_RCC_OscConfig+0xbe>
100447c8:	e091      	b.n	100448ee <HAL_RCC_OscConfig+0x1e2>
100447ca:	4313      	orrs	r3, r2
100447cc:	6023      	str	r3, [r4, #0]
100447ce:	f7fe fb85 	bl	10042edc <HAL_GetTick>
100447d2:	2720      	movs	r7, #32
100447d4:	0006      	movs	r6, r0
100447d6:	6823      	ldr	r3, [r4, #0]
100447d8:	423b      	tst	r3, r7
100447da:	d000      	beq.n	100447de <HAL_RCC_OscConfig+0xd2>
100447dc:	e09b      	b.n	10044916 <HAL_RCC_OscConfig+0x20a>
100447de:	f7fe fb7d 	bl	10042edc <HAL_GetTick>
100447e2:	4b69      	ldr	r3, [pc, #420]	@ (10044988 <HAL_RCC_OscConfig+0x27c>)
100447e4:	1b80      	subs	r0, r0, r6
100447e6:	4298      	cmp	r0, r3
100447e8:	d9f5      	bls.n	100447d6 <HAL_RCC_OscConfig+0xca>
100447ea:	e029      	b.n	10044840 <HAL_RCC_OscConfig+0x134>
100447ec:	68a9      	ldr	r1, [r5, #8]
100447ee:	2900      	cmp	r1, #0
100447f0:	d10e      	bne.n	10044810 <HAL_RCC_OscConfig+0x104>
100447f2:	f7ff ff77 	bl	100446e4 <LL_RCC_HSI_Enable>
100447f6:	f7fe fb71 	bl	10042edc <HAL_GetTick>
100447fa:	0004      	movs	r4, r0
100447fc:	f7ff ff7e 	bl	100446fc <LL_RCC_HSI_IsReady>
10044800:	2801      	cmp	r0, #1
10044802:	d08c      	beq.n	1004471e <HAL_RCC_OscConfig+0x12>
10044804:	f7fe fb6a 	bl	10042edc <HAL_GetTick>
10044808:	1b00      	subs	r0, r0, r4
1004480a:	2864      	cmp	r0, #100	@ 0x64
1004480c:	d9f6      	bls.n	100447fc <HAL_RCC_OscConfig+0xf0>
1004480e:	e017      	b.n	10044840 <HAL_RCC_OscConfig+0x134>
10044810:	2202      	movs	r2, #2
10044812:	4b59      	ldr	r3, [pc, #356]	@ (10044978 <HAL_RCC_OscConfig+0x26c>)
10044814:	6898      	ldr	r0, [r3, #8]
10044816:	4302      	orrs	r2, r0
10044818:	609a      	str	r2, [r3, #8]
1004481a:	2204      	movs	r2, #4
1004481c:	6898      	ldr	r0, [r3, #8]
1004481e:	4302      	orrs	r2, r0
10044820:	609a      	str	r2, [r3, #8]
10044822:	2904      	cmp	r1, #4
10044824:	d1e7      	bne.n	100447f6 <HAL_RCC_OscConfig+0xea>
10044826:	f7fe fb59 	bl	10042edc <HAL_GetTick>
1004482a:	0004      	movs	r4, r0
1004482c:	f7ff ff66 	bl	100446fc <LL_RCC_HSI_IsReady>
10044830:	2801      	cmp	r0, #1
10044832:	d000      	beq.n	10044836 <HAL_RCC_OscConfig+0x12a>
10044834:	e773      	b.n	1004471e <HAL_RCC_OscConfig+0x12>
10044836:	f7fe fb51 	bl	10042edc <HAL_GetTick>
1004483a:	1b00      	subs	r0, r0, r4
1004483c:	2864      	cmp	r0, #100	@ 0x64
1004483e:	d9f5      	bls.n	1004482c <HAL_RCC_OscConfig+0x120>
10044840:	2003      	movs	r0, #3
10044842:	bdf8      	pop	{r3, r4, r5, r6, r7, pc}
10044844:	6811      	ldr	r1, [r2, #0]
10044846:	4851      	ldr	r0, [pc, #324]	@ (1004498c <HAL_RCC_OscConfig+0x280>)
10044848:	4001      	ands	r1, r0
1004484a:	6011      	str	r1, [r2, #0]
1004484c:	2b00      	cmp	r3, #0
1004484e:	d000      	beq.n	10044852 <HAL_RCC_OscConfig+0x146>
10044850:	e784      	b.n	1004475c <HAL_RCC_OscConfig+0x50>
10044852:	f7fe fb43 	bl	10042edc <HAL_GetTick>
10044856:	0004      	movs	r4, r0
10044858:	f7ff ff3c 	bl	100446d4 <LL_RCC_HSE_IsReady>
1004485c:	2800      	cmp	r0, #0
1004485e:	d100      	bne.n	10044862 <HAL_RCC_OscConfig+0x156>
10044860:	e784      	b.n	1004476c <HAL_RCC_OscConfig+0x60>
10044862:	f7fe fb3b 	bl	10042edc <HAL_GetTick>
10044866:	1b00      	subs	r0, r0, r4
10044868:	2864      	cmp	r0, #100	@ 0x64
1004486a:	d9f5      	bls.n	10044858 <HAL_RCC_OscConfig+0x14c>
1004486c:	e7e8      	b.n	10044840 <HAL_RCC_OscConfig+0x134>
1004486e:	f7fe fb35 	bl	10042edc <HAL_GetTick>
10044872:	1b00      	subs	r0, r0, r4
10044874:	2864      	cmp	r0, #100	@ 0x64
10044876:	d800      	bhi.n	1004487a <HAL_RCC_OscConfig+0x16e>
10044878:	e773      	b.n	10044762 <HAL_RCC_OscConfig+0x56>
1004487a:	e7e1      	b.n	10044840 <HAL_RCC_OscConfig+0x134>
1004487c:	692b      	ldr	r3, [r5, #16]
1004487e:	4c3e      	ldr	r4, [pc, #248]	@ (10044978 <HAL_RCC_OscConfig+0x26c>)
10044880:	2b00      	cmp	r3, #0
10044882:	d023      	beq.n	100448cc <HAL_RCC_OscConfig+0x1c0>
10044884:	6823      	ldr	r3, [r4, #0]
10044886:	4393      	bics	r3, r2
10044888:	6023      	str	r3, [r4, #0]
1004488a:	2308      	movs	r3, #8
1004488c:	6822      	ldr	r2, [r4, #0]
1004488e:	421a      	tst	r2, r3
10044890:	d1fc      	bne.n	1004488c <HAL_RCC_OscConfig+0x180>
10044892:	2210      	movs	r2, #16
10044894:	6823      	ldr	r3, [r4, #0]
10044896:	2708      	movs	r7, #8
10044898:	4393      	bics	r3, r2
1004489a:	6023      	str	r3, [r4, #0]
1004489c:	68a2      	ldr	r2, [r4, #8]
1004489e:	4b39      	ldr	r3, [pc, #228]	@ (10044984 <HAL_RCC_OscConfig+0x278>)
100448a0:	401a      	ands	r2, r3
100448a2:	2380      	movs	r3, #128	@ 0x80
100448a4:	025b      	lsls	r3, r3, #9
100448a6:	4313      	orrs	r3, r2
100448a8:	60a3      	str	r3, [r4, #8]
100448aa:	2304      	movs	r3, #4
100448ac:	6822      	ldr	r2, [r4, #0]
100448ae:	4313      	orrs	r3, r2
100448b0:	6023      	str	r3, [r4, #0]
100448b2:	f7fe fb13 	bl	10042edc <HAL_GetTick>
100448b6:	0006      	movs	r6, r0
100448b8:	6823      	ldr	r3, [r4, #0]
100448ba:	423b      	tst	r3, r7
100448bc:	d000      	beq.n	100448c0 <HAL_RCC_OscConfig+0x1b4>
100448be:	e75a      	b.n	10044776 <HAL_RCC_OscConfig+0x6a>
100448c0:	f7fe fb0c 	bl	10042edc <HAL_GetTick>
100448c4:	1b80      	subs	r0, r0, r6
100448c6:	2802      	cmp	r0, #2
100448c8:	d9f6      	bls.n	100448b8 <HAL_RCC_OscConfig+0x1ac>
100448ca:	e7b9      	b.n	10044840 <HAL_RCC_OscConfig+0x134>
100448cc:	6823      	ldr	r3, [r4, #0]
100448ce:	2708      	movs	r7, #8
100448d0:	4393      	bics	r3, r2
100448d2:	6023      	str	r3, [r4, #0]
100448d4:	f7fe fb02 	bl	10042edc <HAL_GetTick>
100448d8:	0006      	movs	r6, r0
100448da:	6823      	ldr	r3, [r4, #0]
100448dc:	423b      	tst	r3, r7
100448de:	d100      	bne.n	100448e2 <HAL_RCC_OscConfig+0x1d6>
100448e0:	e749      	b.n	10044776 <HAL_RCC_OscConfig+0x6a>
100448e2:	f7fe fafb 	bl	10042edc <HAL_GetTick>
100448e6:	1b80      	subs	r0, r0, r6
100448e8:	2802      	cmp	r0, #2
100448ea:	d9f6      	bls.n	100448da <HAL_RCC_OscConfig+0x1ce>
100448ec:	e7a8      	b.n	10044840 <HAL_RCC_OscConfig+0x134>
100448ee:	2110      	movs	r1, #16
100448f0:	438a      	bics	r2, r1
100448f2:	6022      	str	r2, [r4, #0]
100448f4:	2b00      	cmp	r3, #0
100448f6:	d000      	beq.n	100448fa <HAL_RCC_OscConfig+0x1ee>
100448f8:	e769      	b.n	100447ce <HAL_RCC_OscConfig+0xc2>
100448fa:	f7fe faef 	bl	10042edc <HAL_GetTick>
100448fe:	2720      	movs	r7, #32
10044900:	0006      	movs	r6, r0
10044902:	6823      	ldr	r3, [r4, #0]
10044904:	423b      	tst	r3, r7
10044906:	d006      	beq.n	10044916 <HAL_RCC_OscConfig+0x20a>
10044908:	f7fe fae8 	bl	10042edc <HAL_GetTick>
1004490c:	4b1e      	ldr	r3, [pc, #120]	@ (10044988 <HAL_RCC_OscConfig+0x27c>)
1004490e:	1b80      	subs	r0, r0, r6
10044910:	4298      	cmp	r0, r3
10044912:	d9f6      	bls.n	10044902 <HAL_RCC_OscConfig+0x1f6>
10044914:	e794      	b.n	10044840 <HAL_RCC_OscConfig+0x134>
10044916:	682b      	ldr	r3, [r5, #0]
10044918:	071b      	lsls	r3, r3, #28
1004491a:	d401      	bmi.n	10044920 <HAL_RCC_OscConfig+0x214>
1004491c:	2000      	movs	r0, #0
1004491e:	e790      	b.n	10044842 <HAL_RCC_OscConfig+0x136>
10044920:	4c15      	ldr	r4, [pc, #84]	@ (10044978 <HAL_RCC_OscConfig+0x26c>)
10044922:	696b      	ldr	r3, [r5, #20]
10044924:	6822      	ldr	r2, [r4, #0]
10044926:	2b40      	cmp	r3, #64	@ 0x40
10044928:	d10f      	bne.n	1004494a <HAL_RCC_OscConfig+0x23e>
1004492a:	4313      	orrs	r3, r2
1004492c:	6023      	str	r3, [r4, #0]
1004492e:	f7fe fad5 	bl	10042edc <HAL_GetTick>
10044932:	2640      	movs	r6, #64	@ 0x40
10044934:	0005      	movs	r5, r0
10044936:	6823      	ldr	r3, [r4, #0]
10044938:	4233      	tst	r3, r6
1004493a:	d1ef      	bne.n	1004491c <HAL_RCC_OscConfig+0x210>
1004493c:	f7fe face 	bl	10042edc <HAL_GetTick>
10044940:	4a11      	ldr	r2, [pc, #68]	@ (10044988 <HAL_RCC_OscConfig+0x27c>)
10044942:	1b40      	subs	r0, r0, r5
10044944:	4290      	cmp	r0, r2
10044946:	d9f6      	bls.n	10044936 <HAL_RCC_OscConfig+0x22a>
10044948:	e77a      	b.n	10044840 <HAL_RCC_OscConfig+0x134>
1004494a:	2540      	movs	r5, #64	@ 0x40
1004494c:	43aa      	bics	r2, r5
1004494e:	6022      	str	r2, [r4, #0]
10044950:	2b00      	cmp	r3, #0
10044952:	d1ec      	bne.n	1004492e <HAL_RCC_OscConfig+0x222>
10044954:	f7fe fac2 	bl	10042edc <HAL_GetTick>
10044958:	0006      	movs	r6, r0
1004495a:	6823      	ldr	r3, [r4, #0]
1004495c:	422b      	tst	r3, r5
1004495e:	d0dd      	beq.n	1004491c <HAL_RCC_OscConfig+0x210>
10044960:	f7fe fabc 	bl	10042edc <HAL_GetTick>
10044964:	4a08      	ldr	r2, [pc, #32]	@ (10044988 <HAL_RCC_OscConfig+0x27c>)
10044966:	1b80      	subs	r0, r0, r6
10044968:	4290      	cmp	r0, r2
1004496a:	d9f6      	bls.n	1004495a <HAL_RCC_OscConfig+0x24e>
1004496c:	e768      	b.n	10044840 <HAL_RCC_OscConfig+0x134>
1004496e:	46c0      	nop			@ (mov r8, r8)
10044970:	48400098 	.word	0x48400098
10044974:	ffffc0ff 	.word	0xffffc0ff
10044978:	48400000 	.word	0x48400000
1004497c:	48500000 	.word	0x48500000
10044980:	ffffcfff 	.word	0xffffcfff
10044984:	fffe7fff 	.word	0xfffe7fff
10044988:	00001388 	.word	0x00001388
1004498c:	fffeffff 	.word	0xfffeffff

10044990 <HAL_RCC_ClockConfig>:
10044990:	b5f0      	push	{r4, r5, r6, r7, lr}
10044992:	0004      	movs	r4, r0
10044994:	000d      	movs	r5, r1
10044996:	b085      	sub	sp, #20
10044998:	2800      	cmp	r0, #0
1004499a:	d102      	bne.n	100449a2 <HAL_RCC_ClockConfig+0x12>
1004499c:	2001      	movs	r0, #1
1004499e:	b005      	add	sp, #20
100449a0:	bdf0      	pop	{r4, r5, r6, r7, pc}
100449a2:	2230      	movs	r2, #48	@ 0x30
100449a4:	4e47      	ldr	r6, [pc, #284]	@ (10044ac4 <HAL_RCC_ClockConfig+0x134>)
100449a6:	6873      	ldr	r3, [r6, #4]
100449a8:	4393      	bics	r3, r2
100449aa:	430b      	orrs	r3, r1
100449ac:	6073      	str	r3, [r6, #4]
100449ae:	6803      	ldr	r3, [r0, #0]
100449b0:	2b02      	cmp	r3, #2
100449b2:	d121      	bne.n	100449f8 <HAL_RCC_ClockConfig+0x68>
100449b4:	f7ff fe96 	bl	100446e4 <LL_RCC_HSI_Enable>
100449b8:	f7ff fea0 	bl	100446fc <LL_RCC_HSI_IsReady>
100449bc:	2800      	cmp	r0, #0
100449be:	d0ed      	beq.n	1004499c <HAL_RCC_ClockConfig+0xc>
100449c0:	4a41      	ldr	r2, [pc, #260]	@ (10044ac8 <HAL_RCC_ClockConfig+0x138>)
100449c2:	4942      	ldr	r1, [pc, #264]	@ (10044acc <HAL_RCC_ClockConfig+0x13c>)
100449c4:	6813      	ldr	r3, [r2, #0]
100449c6:	400b      	ands	r3, r1
100449c8:	21e0      	movs	r1, #224	@ 0xe0
100449ca:	6013      	str	r3, [r2, #0]
100449cc:	6893      	ldr	r3, [r2, #8]
100449ce:	438b      	bics	r3, r1
100449d0:	6861      	ldr	r1, [r4, #4]
100449d2:	430b      	orrs	r3, r1
100449d4:	6093      	str	r3, [r2, #8]
100449d6:	2430      	movs	r4, #48	@ 0x30
100449d8:	6873      	ldr	r3, [r6, #4]
100449da:	4023      	ands	r3, r4
100449dc:	42ab      	cmp	r3, r5
100449de:	d15c      	bne.n	10044a9a <HAL_RCC_ClockConfig+0x10a>
100449e0:	2300      	movs	r3, #0
100449e2:	9302      	str	r3, [sp, #8]
100449e4:	9b02      	ldr	r3, [sp, #8]
100449e6:	2b05      	cmp	r3, #5
100449e8:	dd68      	ble.n	10044abc <HAL_RCC_ClockConfig+0x12c>
100449ea:	f7fe f941 	bl	10042c70 <SystemCoreClockUpdate>
100449ee:	f7fe fa7b 	bl	10042ee8 <HAL_GetTickPrio>
100449f2:	f7fe fa33 	bl	10042e5c <HAL_InitTick>
100449f6:	e7d2      	b.n	1004499e <HAL_RCC_ClockConfig+0xe>
100449f8:	2b00      	cmp	r3, #0
100449fa:	d123      	bne.n	10044a44 <HAL_RCC_ClockConfig+0xb4>
100449fc:	f7ff fe7e 	bl	100446fc <LL_RCC_HSI_IsReady>
10044a00:	2800      	cmp	r0, #0
10044a02:	d0cb      	beq.n	1004499c <HAL_RCC_ClockConfig+0xc>
10044a04:	f7ff fe66 	bl	100446d4 <LL_RCC_HSE_IsReady>
10044a08:	2800      	cmp	r0, #0
10044a0a:	d0c7      	beq.n	1004499c <HAL_RCC_ClockConfig+0xc>
10044a0c:	2380      	movs	r3, #128	@ 0x80
10044a0e:	4f2e      	ldr	r7, [pc, #184]	@ (10044ac8 <HAL_RCC_ClockConfig+0x138>)
10044a10:	019b      	lsls	r3, r3, #6
10044a12:	683a      	ldr	r2, [r7, #0]
10044a14:	4313      	orrs	r3, r2
10044a16:	603b      	str	r3, [r7, #0]
10044a18:	f7fe fa60 	bl	10042edc <HAL_GetTick>
10044a1c:	9001      	str	r0, [sp, #4]
10044a1e:	2280      	movs	r2, #128	@ 0x80
10044a20:	683b      	ldr	r3, [r7, #0]
10044a22:	01d2      	lsls	r2, r2, #7
10044a24:	4213      	tst	r3, r2
10044a26:	d107      	bne.n	10044a38 <HAL_RCC_ClockConfig+0xa8>
10044a28:	f7fe fa58 	bl	10042edc <HAL_GetTick>
10044a2c:	9b01      	ldr	r3, [sp, #4]
10044a2e:	1ac0      	subs	r0, r0, r3
10044a30:	2802      	cmp	r0, #2
10044a32:	d9f4      	bls.n	10044a1e <HAL_RCC_ClockConfig+0x8e>
10044a34:	2003      	movs	r0, #3
10044a36:	e7b2      	b.n	1004499e <HAL_RCC_ClockConfig+0xe>
10044a38:	22e0      	movs	r2, #224	@ 0xe0
10044a3a:	68bb      	ldr	r3, [r7, #8]
10044a3c:	4393      	bics	r3, r2
10044a3e:	6862      	ldr	r2, [r4, #4]
10044a40:	4313      	orrs	r3, r2
10044a42:	60bb      	str	r3, [r7, #8]
10044a44:	6823      	ldr	r3, [r4, #0]
10044a46:	2b01      	cmp	r3, #1
10044a48:	d1c5      	bne.n	100449d6 <HAL_RCC_ClockConfig+0x46>
10044a4a:	2380      	movs	r3, #128	@ 0x80
10044a4c:	4f1e      	ldr	r7, [pc, #120]	@ (10044ac8 <HAL_RCC_ClockConfig+0x138>)
10044a4e:	029b      	lsls	r3, r3, #10
10044a50:	683a      	ldr	r2, [r7, #0]
10044a52:	421a      	tst	r2, r3
10044a54:	d0fc      	beq.n	10044a50 <HAL_RCC_ClockConfig+0xc0>
10044a56:	2302      	movs	r3, #2
10044a58:	68ba      	ldr	r2, [r7, #8]
10044a5a:	4313      	orrs	r3, r2
10044a5c:	60bb      	str	r3, [r7, #8]
10044a5e:	2300      	movs	r3, #0
10044a60:	9303      	str	r3, [sp, #12]
10044a62:	9b03      	ldr	r3, [sp, #12]
10044a64:	2b05      	cmp	r3, #5
10044a66:	dd14      	ble.n	10044a92 <HAL_RCC_ClockConfig+0x102>
10044a68:	2304      	movs	r3, #4
10044a6a:	68ba      	ldr	r2, [r7, #8]
10044a6c:	4313      	orrs	r3, r2
10044a6e:	60bb      	str	r3, [r7, #8]
10044a70:	f7ff fe44 	bl	100446fc <LL_RCC_HSI_IsReady>
10044a74:	2800      	cmp	r0, #0
10044a76:	d000      	beq.n	10044a7a <HAL_RCC_ClockConfig+0xea>
10044a78:	e790      	b.n	1004499c <HAL_RCC_ClockConfig+0xc>
10044a7a:	f7ff fe2b 	bl	100446d4 <LL_RCC_HSE_IsReady>
10044a7e:	2800      	cmp	r0, #0
10044a80:	d100      	bne.n	10044a84 <HAL_RCC_ClockConfig+0xf4>
10044a82:	e78b      	b.n	1004499c <HAL_RCC_ClockConfig+0xc>
10044a84:	22e0      	movs	r2, #224	@ 0xe0
10044a86:	68bb      	ldr	r3, [r7, #8]
10044a88:	4393      	bics	r3, r2
10044a8a:	6862      	ldr	r2, [r4, #4]
10044a8c:	4313      	orrs	r3, r2
10044a8e:	60bb      	str	r3, [r7, #8]
10044a90:	e7a1      	b.n	100449d6 <HAL_RCC_ClockConfig+0x46>
10044a92:	46c0      	nop			@ (mov r8, r8)
10044a94:	9b03      	ldr	r3, [sp, #12]
10044a96:	3301      	adds	r3, #1
10044a98:	e7e2      	b.n	10044a60 <HAL_RCC_ClockConfig+0xd0>
10044a9a:	6873      	ldr	r3, [r6, #4]
10044a9c:	43a3      	bics	r3, r4
10044a9e:	432b      	orrs	r3, r5
10044aa0:	6073      	str	r3, [r6, #4]
10044aa2:	f7fe fa1b 	bl	10042edc <HAL_GetTick>
10044aa6:	0007      	movs	r7, r0
10044aa8:	6873      	ldr	r3, [r6, #4]
10044aaa:	4023      	ands	r3, r4
10044aac:	42ab      	cmp	r3, r5
10044aae:	d097      	beq.n	100449e0 <HAL_RCC_ClockConfig+0x50>
10044ab0:	f7fe fa14 	bl	10042edc <HAL_GetTick>
10044ab4:	1bc0      	subs	r0, r0, r7
10044ab6:	2802      	cmp	r0, #2
10044ab8:	d9f6      	bls.n	10044aa8 <HAL_RCC_ClockConfig+0x118>
10044aba:	e7bb      	b.n	10044a34 <HAL_RCC_ClockConfig+0xa4>
10044abc:	46c0      	nop			@ (mov r8, r8)
10044abe:	9b02      	ldr	r3, [sp, #8]
10044ac0:	3301      	adds	r3, #1
10044ac2:	e78e      	b.n	100449e2 <HAL_RCC_ClockConfig+0x52>
10044ac4:	40001000 	.word	0x40001000
10044ac8:	48400000 	.word	0x48400000
10044acc:	ffffdfff 	.word	0xffffdfff

10044ad0 <HAL_RCC_GetSysClockFreq>:
10044ad0:	4b01      	ldr	r3, [pc, #4]	@ (10044ad8 <HAL_RCC_GetSysClockFreq+0x8>)
10044ad2:	6818      	ldr	r0, [r3, #0]
10044ad4:	4770      	bx	lr
10044ad6:	46c0      	nop			@ (mov r8, r8)
10044ad8:	200009c8 	.word	0x200009c8

10044adc <HAL_RCCEx_PeriphCLKConfig>:
10044adc:	6803      	ldr	r3, [r0, #0]
10044ade:	b510      	push	{r4, lr}
10044ae0:	07da      	lsls	r2, r3, #31
10044ae2:	d506      	bpl.n	10044af2 <HAL_RCCEx_PeriphCLKConfig+0x16>
10044ae4:	2406      	movs	r4, #6
10044ae6:	4916      	ldr	r1, [pc, #88]	@ (10044b40 <HAL_RCCEx_PeriphCLKConfig+0x64>)
10044ae8:	6e0a      	ldr	r2, [r1, #96]	@ 0x60
10044aea:	43a2      	bics	r2, r4
10044aec:	6904      	ldr	r4, [r0, #16]
10044aee:	4322      	orrs	r2, r4
10044af0:	660a      	str	r2, [r1, #96]	@ 0x60
10044af2:	079a      	lsls	r2, r3, #30
10044af4:	d506      	bpl.n	10044b04 <HAL_RCCEx_PeriphCLKConfig+0x28>
10044af6:	4912      	ldr	r1, [pc, #72]	@ (10044b40 <HAL_RCCEx_PeriphCLKConfig+0x64>)
10044af8:	4c12      	ldr	r4, [pc, #72]	@ (10044b44 <HAL_RCCEx_PeriphCLKConfig+0x68>)
10044afa:	688a      	ldr	r2, [r1, #8]
10044afc:	4022      	ands	r2, r4
10044afe:	6944      	ldr	r4, [r0, #20]
10044b00:	4322      	orrs	r2, r4
10044b02:	608a      	str	r2, [r1, #8]
10044b04:	075a      	lsls	r2, r3, #29
10044b06:	d506      	bpl.n	10044b16 <HAL_RCCEx_PeriphCLKConfig+0x3a>
10044b08:	490d      	ldr	r1, [pc, #52]	@ (10044b40 <HAL_RCCEx_PeriphCLKConfig+0x64>)
10044b0a:	4c0f      	ldr	r4, [pc, #60]	@ (10044b48 <HAL_RCCEx_PeriphCLKConfig+0x6c>)
10044b0c:	688a      	ldr	r2, [r1, #8]
10044b0e:	4022      	ands	r2, r4
10044b10:	6844      	ldr	r4, [r0, #4]
10044b12:	4322      	orrs	r2, r4
10044b14:	608a      	str	r2, [r1, #8]
10044b16:	071b      	lsls	r3, r3, #28
10044b18:	d506      	bpl.n	10044b28 <HAL_RCCEx_PeriphCLKConfig+0x4c>
10044b1a:	4a09      	ldr	r2, [pc, #36]	@ (10044b40 <HAL_RCCEx_PeriphCLKConfig+0x64>)
10044b1c:	490b      	ldr	r1, [pc, #44]	@ (10044b4c <HAL_RCCEx_PeriphCLKConfig+0x70>)
10044b1e:	6893      	ldr	r3, [r2, #8]
10044b20:	400b      	ands	r3, r1
10044b22:	6881      	ldr	r1, [r0, #8]
10044b24:	430b      	orrs	r3, r1
10044b26:	6093      	str	r3, [r2, #8]
10044b28:	68c1      	ldr	r1, [r0, #12]
10044b2a:	068b      	lsls	r3, r1, #26
10044b2c:	d505      	bpl.n	10044b3a <HAL_RCCEx_PeriphCLKConfig+0x5e>
10044b2e:	4a04      	ldr	r2, [pc, #16]	@ (10044b40 <HAL_RCCEx_PeriphCLKConfig+0x64>)
10044b30:	4807      	ldr	r0, [pc, #28]	@ (10044b50 <HAL_RCCEx_PeriphCLKConfig+0x74>)
10044b32:	6893      	ldr	r3, [r2, #8]
10044b34:	4003      	ands	r3, r0
10044b36:	430b      	orrs	r3, r1
10044b38:	6093      	str	r3, [r2, #8]
10044b3a:	2000      	movs	r0, #0
10044b3c:	bd10      	pop	{r4, pc}
10044b3e:	46c0      	nop			@ (mov r8, r8)
10044b40:	48400000 	.word	0x48400000
10044b44:	ffffefff 	.word	0xffffefff
10044b48:	ff7fffff 	.word	0xff7fffff
10044b4c:	ffbfffff 	.word	0xffbfffff
10044b50:	fffe7fff 	.word	0xfffe7fff

10044b54 <HAL_SPI_Init>:
10044b54:	b5f8      	push	{r3, r4, r5, r6, r7, lr}
10044b56:	0004      	movs	r4, r0
10044b58:	2001      	movs	r0, #1
10044b5a:	2c00      	cmp	r4, #0
10044b5c:	d067      	beq.n	10044c2e <HAL_SPI_Init+0xda>
10044b5e:	6a63      	ldr	r3, [r4, #36]	@ 0x24
10044b60:	2b00      	cmp	r3, #0
10044b62:	d165      	bne.n	10044c30 <HAL_SPI_Init+0xdc>
10044b64:	2282      	movs	r2, #130	@ 0x82
10044b66:	6861      	ldr	r1, [r4, #4]
10044b68:	0052      	lsls	r2, r2, #1
10044b6a:	4291      	cmp	r1, r2
10044b6c:	d000      	beq.n	10044b70 <HAL_SPI_Init+0x1c>
10044b6e:	61e3      	str	r3, [r4, #28]
10044b70:	2300      	movs	r3, #0
10044b72:	0025      	movs	r5, r4
10044b74:	62a3      	str	r3, [r4, #40]	@ 0x28
10044b76:	355d      	adds	r5, #93	@ 0x5d
10044b78:	782b      	ldrb	r3, [r5, #0]
10044b7a:	b2da      	uxtb	r2, r3
10044b7c:	2b00      	cmp	r3, #0
10044b7e:	d105      	bne.n	10044b8c <HAL_SPI_Init+0x38>
10044b80:	0023      	movs	r3, r4
10044b82:	335c      	adds	r3, #92	@ 0x5c
10044b84:	0020      	movs	r0, r4
10044b86:	701a      	strb	r2, [r3, #0]
10044b88:	f7fd ffe4 	bl	10042b54 <HAL_SPI_MspInit>
10044b8c:	2302      	movs	r3, #2
10044b8e:	2240      	movs	r2, #64	@ 0x40
10044b90:	702b      	strb	r3, [r5, #0]
10044b92:	6821      	ldr	r1, [r4, #0]
10044b94:	68e6      	ldr	r6, [r4, #12]
10044b96:	680b      	ldr	r3, [r1, #0]
10044b98:	4393      	bics	r3, r2
10044b9a:	22e0      	movs	r2, #224	@ 0xe0
10044b9c:	600b      	str	r3, [r1, #0]
10044b9e:	00d2      	lsls	r2, r2, #3
10044ba0:	2300      	movs	r3, #0
10044ba2:	4296      	cmp	r6, r2
10044ba4:	d948      	bls.n	10044c38 <HAL_SPI_Init+0xe4>
10044ba6:	22f0      	movs	r2, #240	@ 0xf0
10044ba8:	0018      	movs	r0, r3
10044baa:	0112      	lsls	r2, r2, #4
10044bac:	4296      	cmp	r6, r2
10044bae:	d000      	beq.n	10044bb2 <HAL_SPI_Init+0x5e>
10044bb0:	62a3      	str	r3, [r4, #40]	@ 0x28
10044bb2:	2282      	movs	r2, #130	@ 0x82
10044bb4:	2784      	movs	r7, #132	@ 0x84
10044bb6:	6863      	ldr	r3, [r4, #4]
10044bb8:	0052      	lsls	r2, r2, #1
10044bba:	4013      	ands	r3, r2
10044bbc:	68a2      	ldr	r2, [r4, #8]
10044bbe:	023f      	lsls	r7, r7, #8
10044bc0:	403a      	ands	r2, r7
10044bc2:	2702      	movs	r7, #2
10044bc4:	4313      	orrs	r3, r2
10044bc6:	6922      	ldr	r2, [r4, #16]
10044bc8:	69a5      	ldr	r5, [r4, #24]
10044bca:	403a      	ands	r2, r7
10044bcc:	4313      	orrs	r3, r2
10044bce:	2201      	movs	r2, #1
10044bd0:	6967      	ldr	r7, [r4, #20]
10044bd2:	4017      	ands	r7, r2
10044bd4:	433b      	orrs	r3, r7
10044bd6:	2780      	movs	r7, #128	@ 0x80
10044bd8:	00bf      	lsls	r7, r7, #2
10044bda:	402f      	ands	r7, r5
10044bdc:	433b      	orrs	r3, r7
10044bde:	69e7      	ldr	r7, [r4, #28]
10044be0:	3237      	adds	r2, #55	@ 0x37
10044be2:	4017      	ands	r7, r2
10044be4:	433b      	orrs	r3, r7
10044be6:	6a27      	ldr	r7, [r4, #32]
10044be8:	3248      	adds	r2, #72	@ 0x48
10044bea:	4017      	ands	r7, r2
10044bec:	2280      	movs	r2, #128	@ 0x80
10044bee:	433b      	orrs	r3, r7
10044bf0:	6aa7      	ldr	r7, [r4, #40]	@ 0x28
10044bf2:	0192      	lsls	r2, r2, #6
10044bf4:	4017      	ands	r7, r2
10044bf6:	433b      	orrs	r3, r7
10044bf8:	2710      	movs	r7, #16
10044bfa:	2208      	movs	r2, #8
10044bfc:	600b      	str	r3, [r1, #0]
10044bfe:	6a63      	ldr	r3, [r4, #36]	@ 0x24
10044c00:	0c2d      	lsrs	r5, r5, #16
10044c02:	403b      	ands	r3, r7
10044c04:	6b67      	ldr	r7, [r4, #52]	@ 0x34
10044c06:	4017      	ands	r7, r2
10044c08:	433b      	orrs	r3, r7
10044c0a:	27f0      	movs	r7, #240	@ 0xf0
10044c0c:	013f      	lsls	r7, r7, #4
10044c0e:	403e      	ands	r6, r7
10044c10:	4333      	orrs	r3, r6
10044c12:	2604      	movs	r6, #4
10044c14:	4035      	ands	r5, r6
10044c16:	432b      	orrs	r3, r5
10044c18:	4303      	orrs	r3, r0
10044c1a:	604b      	str	r3, [r1, #4]
10044c1c:	69cb      	ldr	r3, [r1, #28]
10044c1e:	4808      	ldr	r0, [pc, #32]	@ (10044c40 <HAL_SPI_Init+0xec>)
10044c20:	4003      	ands	r3, r0
10044c22:	2000      	movs	r0, #0
10044c24:	61cb      	str	r3, [r1, #28]
10044c26:	2301      	movs	r3, #1
10044c28:	6620      	str	r0, [r4, #96]	@ 0x60
10044c2a:	345d      	adds	r4, #93	@ 0x5d
10044c2c:	7023      	strb	r3, [r4, #0]
10044c2e:	bdf8      	pop	{r3, r4, r5, r6, r7, pc}
10044c30:	2300      	movs	r3, #0
10044c32:	6123      	str	r3, [r4, #16]
10044c34:	6163      	str	r3, [r4, #20]
10044c36:	e79b      	b.n	10044b70 <HAL_SPI_Init+0x1c>
10044c38:	2080      	movs	r0, #128	@ 0x80
10044c3a:	0140      	lsls	r0, r0, #5
10044c3c:	e7b6      	b.n	10044bac <HAL_SPI_Init+0x58>
10044c3e:	46c0      	nop			@ (mov r8, r8)
10044c40:	fffff7ff 	.word	0xfffff7ff

10044c44 <memcmp>:
10044c44:	b530      	push	{r4, r5, lr}
10044c46:	2400      	movs	r4, #0
10044c48:	3901      	subs	r1, #1
10044c4a:	42a2      	cmp	r2, r4
10044c4c:	d101      	bne.n	10044c52 <memcmp+0xe>
10044c4e:	2000      	movs	r0, #0
10044c50:	e005      	b.n	10044c5e <memcmp+0x1a>
10044c52:	5d03      	ldrb	r3, [r0, r4]
10044c54:	3401      	adds	r4, #1
10044c56:	5d0d      	ldrb	r5, [r1, r4]
10044c58:	42ab      	cmp	r3, r5
10044c5a:	d0f6      	beq.n	10044c4a <memcmp+0x6>
10044c5c:	1b58      	subs	r0, r3, r5
10044c5e:	bd30      	pop	{r4, r5, pc}

10044c60 <memset>:
10044c60:	0003      	movs	r3, r0
10044c62:	1882      	adds	r2, r0, r2
10044c64:	4293      	cmp	r3, r2
10044c66:	d100      	bne.n	10044c6a <memset+0xa>
10044c68:	4770      	bx	lr
10044c6a:	7019      	strb	r1, [r3, #0]
10044c6c:	3301      	adds	r3, #1
10044c6e:	e7f9      	b.n	10044c64 <memset+0x4>

10044c70 <memcpy>:
10044c70:	2300      	movs	r3, #0
10044c72:	b510      	push	{r4, lr}
10044c74:	429a      	cmp	r2, r3
10044c76:	d100      	bne.n	10044c7a <memcpy+0xa>
10044c78:	bd10      	pop	{r4, pc}
10044c7a:	5ccc      	ldrb	r4, [r1, r3]
10044c7c:	54c4      	strb	r4, [r0, r3]
10044c7e:	3301      	adds	r3, #1
10044c80:	e7f8      	b.n	10044c74 <memcpy+0x4>
	...

Disassembly of section .init:

10044c84 <_init>:
10044c84:	b5f8      	push	{r3, r4, r5, r6, r7, lr}
10044c86:	46c0      	nop			@ (mov r8, r8)

Disassembly of section .fini:

10044c88 <_fini>:
10044c88:	b5f8      	push	{r3, r4, r5, r6, r7, lr}
10044c8a:	46c0      	nop			@ (mov r8, r8)
